	.section	__TEXT,__text,regular,pure_instructions
	.build_version macos, 13, 0	sdk_version 13, 3
	.file	1 "/Applications/Xcode.app/Contents/Developer/Platforms/MacOSX.platform/Developer/SDKs/MacOSX.sdk/usr/include/c++/v1" "ios"
	.file	2 "/Applications/Xcode.app/Contents/Developer/Toolchains/XcodeDefault.xctoolchain/usr/lib/clang/14.0.3/include" "stddef.h"
	.file	3 "/Applications/Xcode.app/Contents/Developer/Platforms/MacOSX.platform/Developer/SDKs/MacOSX.sdk/usr/include/c++/v1" "__locale"
	.file	4 "/Applications/Xcode.app/Contents/Developer/Platforms/MacOSX.platform/Developer/SDKs/MacOSX.sdk/usr/include/c++/v1/__string" "char_traits.h"
	.file	5 "/Applications/Xcode.app/Contents/Developer/Platforms/MacOSX.platform/Developer/SDKs/MacOSX.sdk/usr/include/c++/v1/__memory" "allocator.h"
	.file	6 "/Applications/Xcode.app/Contents/Developer/Platforms/MacOSX.platform/Developer/SDKs/MacOSX.sdk/usr/include/c++/v1/__memory" "allocator_traits.h"
	.file	7 "/Applications/Xcode.app/Contents/Developer/Platforms/MacOSX.platform/Developer/SDKs/MacOSX.sdk/usr/include/c++/v1" "string"
	.file	8 "/Applications/Xcode.app/Contents/Developer/Platforms/MacOSX.platform/Developer/SDKs/MacOSX.sdk/usr/include/c++/v1/__memory" "compressed_pair.h"
	.file	9 "/Applications/Xcode.app/Contents/Developer/Platforms/MacOSX.platform/Developer/SDKs/MacOSX.sdk/usr/include/c++/v1" "string_view"
	.file	10 "/Applications/Xcode.app/Contents/Developer/Platforms/MacOSX.platform/Developer/SDKs/MacOSX.sdk/usr/include/c++/v1/__type_traits" "integral_constant.h"
	.file	11 "/Applications/Xcode.app/Contents/Developer/Platforms/MacOSX.platform/Developer/SDKs/MacOSX.sdk/usr/include/c++/v1" "iosfwd"
	.file	12 "/Applications/Xcode.app/Contents/Developer/Platforms/MacOSX.platform/Developer/SDKs/MacOSX.sdk/usr/include/c++/v1/__memory" "shared_ptr.h"
	.file	13 "/Applications/Xcode.app/Contents/Developer/Platforms/MacOSX.platform/Developer/SDKs/MacOSX.sdk/usr/include/c++/v1" "mutex"
	.file	14 "/Applications/Xcode.app/Contents/Developer/Platforms/MacOSX.platform/Developer/SDKs/MacOSX.sdk/usr/include/sys/_types" "_int32_t.h"
	.file	15 "/Applications/Xcode.app/Contents/Developer/Platforms/MacOSX.platform/Developer/SDKs/MacOSX.sdk/usr/include/c++/v1" "limits"
	.file	16 "/Applications/Xcode.app/Contents/Developer/Platforms/MacOSX.platform/Developer/SDKs/MacOSX.sdk/usr/include/arm" "_types.h"
	.file	17 "/Applications/Xcode.app/Contents/Developer/Platforms/MacOSX.platform/Developer/SDKs/MacOSX.sdk/usr/include/sys/_types" "_clock_t.h"
	.file	18 "/Applications/Xcode.app/Contents/Developer/Platforms/MacOSX.platform/Developer/SDKs/MacOSX.sdk/usr/include/c++/v1/__iterator" "iterator_traits.h"
	.file	19 "/Applications/Xcode.app/Contents/Developer/Platforms/MacOSX.platform/Developer/SDKs/MacOSX.sdk/usr/include/c++/v1/__iterator" "iterator.h"
	.file	20 "/Applications/Xcode.app/Contents/Developer/Platforms/MacOSX.platform/Developer/SDKs/MacOSX.sdk/usr/include/c++/v1" "streambuf"
	.file	21 "/Applications/Xcode.app/Contents/Developer/Platforms/MacOSX.platform/Developer/SDKs/MacOSX.sdk/usr/include/c++/v1/__iterator" "ostreambuf_iterator.h"
	.file	22 "/Applications/Xcode.app/Contents/Developer/Platforms/MacOSX.platform/Developer/SDKs/MacOSX.sdk/usr/include/c++/v1" "ostream"
	.file	23 "/Applications/Xcode.app/Contents/Developer/Platforms/MacOSX.platform/Developer/SDKs/MacOSX.sdk/usr/include/c++/v1" "exception"
	.file	24 "/Applications/Xcode.app/Contents/Developer/Platforms/MacOSX.platform/Developer/SDKs/MacOSX.sdk/usr/include/c++/v1" "stdexcept"
	.file	25 "/Applications/Xcode.app/Contents/Developer/Platforms/MacOSX.platform/Developer/SDKs/MacOSX.sdk/usr/include/sys/_types" "_mbstate_t.h"
	.file	26 "/Applications/Xcode.app/Contents/Developer/Platforms/MacOSX.platform/Developer/SDKs/MacOSX.sdk/usr/include/c++/v1" "__mbstate_t.h"
	.file	27 "/Applications/Xcode.app/Contents/Developer/Platforms/MacOSX.platform/Developer/SDKs/MacOSX.sdk/usr/include" "_ctype.h"
	.file	28 "/Applications/Xcode.app/Contents/Developer/Platforms/MacOSX.platform/Developer/SDKs/MacOSX.sdk/usr/include/c++/v1" "cctype"
	.file	29 "/Applications/Xcode.app/Contents/Developer/Platforms/MacOSX.platform/Developer/SDKs/MacOSX.sdk/usr/include/sys/_types" "_int8_t.h"
	.file	30 "/Applications/Xcode.app/Contents/Developer/Platforms/MacOSX.platform/Developer/SDKs/MacOSX.sdk/usr/include/c++/v1" "cstdint"
	.file	31 "/Applications/Xcode.app/Contents/Developer/Platforms/MacOSX.platform/Developer/SDKs/MacOSX.sdk/usr/include/sys/_types" "_int16_t.h"
	.file	32 "/Applications/Xcode.app/Contents/Developer/Platforms/MacOSX.platform/Developer/SDKs/MacOSX.sdk/usr/include/sys/_types" "_int64_t.h"
	.file	33 "/Applications/Xcode.app/Contents/Developer/Platforms/MacOSX.platform/Developer/SDKs/MacOSX.sdk/usr/include/_types" "_uint8_t.h"
	.file	34 "/Applications/Xcode.app/Contents/Developer/Platforms/MacOSX.platform/Developer/SDKs/MacOSX.sdk/usr/include/_types" "_uint16_t.h"
	.file	35 "/Applications/Xcode.app/Contents/Developer/Platforms/MacOSX.platform/Developer/SDKs/MacOSX.sdk/usr/include/_types" "_uint32_t.h"
	.file	36 "/Applications/Xcode.app/Contents/Developer/Platforms/MacOSX.platform/Developer/SDKs/MacOSX.sdk/usr/include/_types" "_uint64_t.h"
	.file	37 "/Applications/Xcode.app/Contents/Developer/Platforms/MacOSX.platform/Developer/SDKs/MacOSX.sdk/usr/include" "stdint.h"
	.file	38 "/Applications/Xcode.app/Contents/Developer/Platforms/MacOSX.platform/Developer/SDKs/MacOSX.sdk/usr/include/sys/_types" "_intptr_t.h"
	.file	39 "/Applications/Xcode.app/Contents/Developer/Platforms/MacOSX.platform/Developer/SDKs/MacOSX.sdk/usr/include/sys/_types" "_uintptr_t.h"
	.file	40 "/Applications/Xcode.app/Contents/Developer/Platforms/MacOSX.platform/Developer/SDKs/MacOSX.sdk/usr/include/_types" "_intmax_t.h"
	.file	41 "/Applications/Xcode.app/Contents/Developer/Platforms/MacOSX.platform/Developer/SDKs/MacOSX.sdk/usr/include/_types" "_uintmax_t.h"
	.file	42 "/Applications/Xcode.app/Contents/Developer/Platforms/MacOSX.platform/Developer/SDKs/MacOSX.sdk/usr/include/c++/v1" "stddef.h"
	.file	43 "/Applications/Xcode.app/Contents/Developer/Platforms/MacOSX.platform/Developer/SDKs/MacOSX.sdk/usr/include/c++/v1" "cstddef"
	.file	44 "/Applications/Xcode.app/Contents/Developer/Platforms/MacOSX.platform/Developer/SDKs/MacOSX.sdk/usr/include/c++/v1" "cstdlib"
	.file	45 "/Applications/Xcode.app/Contents/Developer/Platforms/MacOSX.platform/Developer/SDKs/MacOSX.sdk/usr/include" "stdlib.h"
	.file	46 "/Applications/Xcode.app/Contents/Developer/Platforms/MacOSX.platform/Developer/SDKs/MacOSX.sdk/usr/include/malloc" "_malloc.h"
	.file	47 "/Applications/Xcode.app/Contents/Developer/Platforms/MacOSX.platform/Developer/SDKs/MacOSX.sdk/usr/include/c++/v1" "stdlib.h"
	.file	48 "/Applications/Xcode.app/Contents/Developer/Platforms/MacOSX.platform/Developer/SDKs/MacOSX.sdk/usr/include/c++/v1" "cstring"
	.file	49 "/Applications/Xcode.app/Contents/Developer/Platforms/MacOSX.platform/Developer/SDKs/MacOSX.sdk/usr/include" "string.h"
	.file	50 "/Applications/Xcode.app/Contents/Developer/Platforms/MacOSX.platform/Developer/SDKs/MacOSX.sdk/usr/include/c++/v1" "string.h"
	.file	51 "/Applications/Xcode.app/Contents/Developer/Platforms/MacOSX.platform/Developer/SDKs/MacOSX.sdk/usr/include/c++/v1" "math.h"
	.file	52 "/Applications/Xcode.app/Contents/Developer/Platforms/MacOSX.platform/Developer/SDKs/MacOSX.sdk/usr/include/c++/v1" "cmath"
	.file	53 "/Applications/Xcode.app/Contents/Developer/Platforms/MacOSX.platform/Developer/SDKs/MacOSX.sdk/usr/include" "math.h"
	.file	54 "/Applications/Xcode.app/Contents/Developer/Platforms/MacOSX.platform/Developer/SDKs/MacOSX.sdk/usr/include/c++/v1" "ctime"
	.file	55 "/Applications/Xcode.app/Contents/Developer/Platforms/MacOSX.platform/Developer/SDKs/MacOSX.sdk/usr/include/sys/_types" "_time_t.h"
	.file	56 "/Applications/Xcode.app/Contents/Developer/Platforms/MacOSX.platform/Developer/SDKs/MacOSX.sdk/usr/include" "time.h"
	.file	57 "/Applications/Xcode.app/Contents/Developer/Platforms/MacOSX.platform/Developer/SDKs/MacOSX.sdk/usr/include" "_stdio.h"
	.file	58 "/Applications/Xcode.app/Contents/Developer/Platforms/MacOSX.platform/Developer/SDKs/MacOSX.sdk/usr/include/sys" "_types.h"
	.file	59 "/Applications/Xcode.app/Contents/Developer/Platforms/MacOSX.platform/Developer/SDKs/MacOSX.sdk/usr/include/c++/v1" "cstdio"
	.file	60 "/Applications/Xcode.app/Contents/Developer/Platforms/MacOSX.platform/Developer/SDKs/MacOSX.sdk/usr/include" "stdio.h"
	.file	61 "/Applications/Xcode.app/Contents/Developer/Platforms/MacOSX.platform/Developer/SDKs/MacOSX.sdk/usr/include/sys/_types" "_va_list.h"
	.file	62 "/Applications/Xcode.app/Contents/Developer/Platforms/MacOSX.platform/Developer/SDKs/MacOSX.sdk/usr/include/sys/_types" "_wint_t.h"
	.file	63 "/Applications/Xcode.app/Contents/Developer/Platforms/MacOSX.platform/Developer/SDKs/MacOSX.sdk/usr/include/c++/v1" "cwctype"
	.file	64 "/Applications/Xcode.app/Contents/Developer/Platforms/MacOSX.platform/Developer/SDKs/MacOSX.sdk/usr/include" "_types.h"
	.file	65 "/Applications/Xcode.app/Contents/Developer/Platforms/MacOSX.platform/Developer/SDKs/MacOSX.sdk/usr/include/_types" "_wctrans_t.h"
	.file	66 "/Applications/Xcode.app/Contents/Developer/Platforms/MacOSX.platform/Developer/SDKs/MacOSX.sdk/usr/include/_types" "_wctype_t.h"
	.file	67 "/Applications/Xcode.app/Contents/Developer/Platforms/MacOSX.platform/Developer/SDKs/MacOSX.sdk/usr/include" "_wctype.h"
	.file	68 "/Applications/Xcode.app/Contents/Developer/Platforms/MacOSX.platform/Developer/SDKs/MacOSX.sdk/usr/include" "wctype.h"
	.file	69 "/Applications/Xcode.app/Contents/Developer/Platforms/MacOSX.platform/Developer/SDKs/MacOSX.sdk/usr/include/c++/v1" "cwchar"
	.file	70 "/Applications/Xcode.app/Contents/Developer/Platforms/MacOSX.platform/Developer/SDKs/MacOSX.sdk/usr/include" "wchar.h"
	.file	71 "/Applications/Xcode.app/Contents/Developer/Platforms/MacOSX.platform/Developer/SDKs/MacOSX.sdk/usr/include/c++/v1" "wchar.h"
	.file	72 "/Applications/Xcode.app/Contents/Developer/Platforms/MacOSX.platform/Developer/SDKs/MacOSX.sdk/usr/include/c++/v1" "cstdarg"
	.file	73 "/Users/adamritter/Documents/GitHub/fastgron/fastgron" "src/filltest.cc"
	.globl	_main                           ; -- Begin function main
	.p2align	2
_main:                                  ; @main
Lfunc_begin0:
	.loc	73 5 0                          ; src/filltest.cc:5:0
	.cfi_startproc
; %bb.0:
	;DEBUG_VALUE: main:argc <- $w0
	;DEBUG_VALUE: main:argv <- $x1
	stp	x24, x23, [sp, #-64]!           ; 16-byte Folded Spill
	.cfi_def_cfa_offset 64
	stp	x22, x21, [sp, #16]             ; 16-byte Folded Spill
	stp	x20, x19, [sp, #32]             ; 16-byte Folded Spill
	stp	x29, x30, [sp, #48]             ; 16-byte Folded Spill
	add	x29, sp, #48
	.cfi_def_cfa w29, 16
	.cfi_offset w30, -8
	.cfi_offset w29, -16
	.cfi_offset w19, -24
	.cfi_offset w20, -32
	.cfi_offset w21, -40
	.cfi_offset w22, -48
	.cfi_offset w23, -56
	.cfi_offset w24, -64
	mov	w9, #16976
	movk	w9, #15, lsl #16
Lloh0:
	adrp	x16, ___chkstk_darwin@GOTPAGE
Lloh1:
	ldr	x16, [x16, ___chkstk_darwin@GOTPAGEOFF]
	blr	x16
Ltmp37:
	sub	sp, sp, #244, lsl #12           ; =999424
	sub	sp, sp, #592
	mov	x19, x1
Ltmp38:
	;DEBUG_VALUE: main:argv <- $x19
Lloh2:
	adrp	x8, ___stack_chk_guard@GOTPAGE
Lloh3:
	ldr	x8, [x8, ___stack_chk_guard@GOTPAGEOFF]
Lloh4:
	ldr	x8, [x8]
	stur	x8, [x29, #-56]
Ltmp39:
	.loc	73 7 9 prologue_end             ; src/filltest.cc:7:9
	cmp	w0, #1
	b.gt	LBB0_2
Ltmp40:
; %bb.1:
	;DEBUG_VALUE: main:argv <- $x19
	;DEBUG_VALUE: main:argc <- $w0
	.loc	22 902 12                       ; /Applications/Xcode.app/Contents/Developer/Platforms/MacOSX.platform/Developer/SDKs/MacOSX.sdk/usr/include/c++/v1/ostream:902:12
Lloh5:
	adrp	x0, __ZNSt3__14cerrE@GOTPAGE
Ltmp41:
	;DEBUG_VALUE: main:argc <- [DW_OP_LLVM_entry_value 1] $w0
Lloh6:
	ldr	x0, [x0, __ZNSt3__14cerrE@GOTPAGEOFF]
Ltmp42:
	;DEBUG_VALUE: operator<<<std::__1::char_traits<char> >:__os <- $x0
Lloh7:
	adrp	x1, l_.str@PAGE
Lloh8:
	add	x1, x1, l_.str@PAGEOFF
Ltmp43:
	;DEBUG_VALUE: length:__s <- $x1
	;DEBUG_VALUE: operator<<<std::__1::char_traits<char> >:__str <- $x1
	mov	w2, #7
	bl	__ZNSt3__124__put_character_sequenceIcNS_11char_traitsIcEEEERNS_13basic_ostreamIT_T0_EES7_PKS4_m
Ltmp44:
	mov	x20, x0
Ltmp45:
	.loc	73 9 30                         ; src/filltest.cc:9:30
	ldr	x19, [x19]
Ltmp46:
	;DEBUG_VALUE: main:argv <- [DW_OP_LLVM_entry_value 1] $x1
	;DEBUG_VALUE: length:__s <- $x19
	;DEBUG_VALUE: operator<<<std::__1::char_traits<char> >:__str <- $x19
	;DEBUG_VALUE: operator<<<std::__1::char_traits<char> >:__os <- $x20
	.loc	4 218 14                        ; /Applications/Xcode.app/Contents/Developer/Platforms/MacOSX.platform/Developer/SDKs/MacOSX.sdk/usr/include/c++/v1/__string/char_traits.h:218:14
	mov	x0, x19
	bl	_strlen
Ltmp47:
	mov	x2, x0
Ltmp48:
	.loc	22 902 12                       ; /Applications/Xcode.app/Contents/Developer/Platforms/MacOSX.platform/Developer/SDKs/MacOSX.sdk/usr/include/c++/v1/ostream:902:12
	mov	x0, x20
	mov	x1, x19
	bl	__ZNSt3__124__put_character_sequenceIcNS_11char_traitsIcEEEERNS_13basic_ostreamIT_T0_EES7_PKS4_m
Ltmp49:
	;DEBUG_VALUE: operator<<<std::__1::char_traits<char> >:__os <- $x0
	.loc	22 902 12 is_stmt 0             ; /Applications/Xcode.app/Contents/Developer/Platforms/MacOSX.platform/Developer/SDKs/MacOSX.sdk/usr/include/c++/v1/ostream:902:12
Lloh9:
	adrp	x1, l_.str.1@PAGE
Lloh10:
	add	x1, x1, l_.str.1@PAGEOFF
Ltmp50:
	;DEBUG_VALUE: length:__s <- $x1
	;DEBUG_VALUE: operator<<<std::__1::char_traits<char> >:__str <- $x1
	mov	w2, #12
	bl	__ZNSt3__124__put_character_sequenceIcNS_11char_traitsIcEEEERNS_13basic_ostreamIT_T0_EES7_PKS4_m
Ltmp51:
	.loc	22 0 12                         ; /Applications/Xcode.app/Contents/Developer/Platforms/MacOSX.platform/Developer/SDKs/MacOSX.sdk/usr/include/c++/v1/ostream:0:12
	mov	w0, #1
	b	LBB0_10
Ltmp52:
LBB0_2:
	;DEBUG_VALUE: main:argv <- $x19
	;DEBUG_VALUE: main:argc <- $w0
	.loc	73 12 18 is_stmt 1              ; src/filltest.cc:12:18
	ldr	x0, [x19, #8]
Ltmp53:
	;DEBUG_VALUE: main:argc <- [DW_OP_LLVM_entry_value 1] $w0
	.loc	73 12 13 is_stmt 0              ; src/filltest.cc:12:13
	bl	_atoi
Ltmp54:
	mov	x20, x0
Ltmp55:
	;DEBUG_VALUE: main:out <- 0
	;DEBUG_VALUE: main:p <- 0
	;DEBUG_VALUE: main:n <- $w20
	.loc	73 17 17 is_stmt 1              ; src/filltest.cc:17:17
	bl	_clock
Ltmp56:
	mov	x19, x0
Ltmp57:
	;DEBUG_VALUE: main:argv <- [DW_OP_LLVM_entry_value 1] $x1
	;DEBUG_VALUE: j <- 0
	.loc	73 0 17 is_stmt 0               ; src/filltest.cc:0:17
	mov	w8, #0
	mov	w21, #0
	add	x9, sp, #8
	mov	w10, #91
	mov	w11, #9
	mov	w12, #93
	mov	w13, #42
	mov	w14, #34464
	movk	w14, #1, lsl #16
	b	LBB0_4
Ltmp58:
LBB0_3:                                 ;   in Loop: Header=BB0_4 Depth=1
	;DEBUG_VALUE: j <- $w8
	;DEBUG_VALUE: main:out <- $w21
	;DEBUG_VALUE: main:argv <- [DW_OP_LLVM_entry_value 1] $x1
	;DEBUG_VALUE: main:n <- $w20
	;DEBUG_VALUE: main:argc <- [DW_OP_LLVM_entry_value 1] $w0
	.loc	73 30 16 is_stmt 1              ; src/filltest.cc:30:16
	ldrsb	w15, [sp, #1008]
	.loc	73 30 13 is_stmt 0              ; src/filltest.cc:30:13
	add	w21, w21, w15
Ltmp59:
	;DEBUG_VALUE: main:out <- $w21
	.loc	73 18 34 is_stmt 1              ; src/filltest.cc:18:34
	add	w8, w8, #1
Ltmp60:
	;DEBUG_VALUE: j <- $w8
	;DEBUG_VALUE: main:p <- $w22
	.loc	73 18 5 is_stmt 0               ; src/filltest.cc:18:5
	cmp	w8, w14
	b.eq	LBB0_9
Ltmp61:
LBB0_4:                                 ; =>This Loop Header: Depth=1
                                        ;     Child Loop BB0_7 Depth 2
	;DEBUG_VALUE: main:argv <- [DW_OP_LLVM_entry_value 1] $x1
	;DEBUG_VALUE: main:n <- $w20
	;DEBUG_VALUE: main:argc <- [DW_OP_LLVM_entry_value 1] $w0
	;DEBUG_VALUE: main:p <- $w8
	;DEBUG_VALUE: main:out <- $w21
	;DEBUG_VALUE: j <- $w8
	;DEBUG_VALUE: i <- 0
	.loc	73 0 5                          ; src/filltest.cc:0:5
	mov	x22, x8
Ltmp62:
	.loc	73 21 9 is_stmt 1               ; src/filltest.cc:21:9
	cmp	w20, #1
	b.lt	LBB0_3
Ltmp63:
; %bb.5:                                ;   in Loop: Header=BB0_4 Depth=1
	;DEBUG_VALUE: i <- 0
	;DEBUG_VALUE: j <- $w8
	;DEBUG_VALUE: main:out <- $w21
	;DEBUG_VALUE: main:p <- $w8
	;DEBUG_VALUE: main:argv <- [DW_OP_LLVM_entry_value 1] $x1
	;DEBUG_VALUE: main:n <- $w20
	;DEBUG_VALUE: main:argc <- [DW_OP_LLVM_entry_value 1] $w0
	.loc	73 0 9 is_stmt 0                ; src/filltest.cc:0:9
	mov	w15, #0
	mov	x22, x8
	b	LBB0_7
Ltmp64:
LBB0_6:                                 ;   in Loop: Header=BB0_7 Depth=2
	;DEBUG_VALUE: i <- $w15
	;DEBUG_VALUE: j <- $w8
	;DEBUG_VALUE: main:out <- $w21
	;DEBUG_VALUE: main:argv <- [DW_OP_LLVM_entry_value 1] $x1
	;DEBUG_VALUE: main:n <- $w20
	;DEBUG_VALUE: main:argc <- [DW_OP_LLVM_entry_value 1] $w0
	;DEBUG_VALUE: main:p <- $w16
	.loc	73 28 16 is_stmt 1              ; src/filltest.cc:28:16
	add	w22, w16, #1
Ltmp65:
	;DEBUG_VALUE: main:p <- $w22
	.loc	73 28 20 is_stmt 0              ; src/filltest.cc:28:20
	strb	w12, [x9, w16, sxtw]
Ltmp66:
	.loc	73 21 33 is_stmt 1              ; src/filltest.cc:21:33
	add	w15, w15, #1
Ltmp67:
	;DEBUG_VALUE: i <- $w15
	.loc	73 21 9 is_stmt 0               ; src/filltest.cc:21:9
	cmp	w20, w15
	b.eq	LBB0_3
Ltmp68:
LBB0_7:                                 ;   Parent Loop BB0_4 Depth=1
                                        ; =>  This Inner Loop Header: Depth=2
	;DEBUG_VALUE: j <- $w8
	;DEBUG_VALUE: main:out <- $w21
	;DEBUG_VALUE: main:argv <- [DW_OP_LLVM_entry_value 1] $x1
	;DEBUG_VALUE: main:n <- $w20
	;DEBUG_VALUE: main:argc <- [DW_OP_LLVM_entry_value 1] $w0
	;DEBUG_VALUE: main:p <- $w22
	;DEBUG_VALUE: i <- $w15
	.loc	73 26 17 is_stmt 1              ; src/filltest.cc:26:17
	sxtw	x17, w22
Ltmp69:
	.loc	73 23 16                        ; src/filltest.cc:23:16
	add	x16, x17, #1
Ltmp70:
	;DEBUG_VALUE: main:p <- undef
	.loc	73 23 20 is_stmt 0              ; src/filltest.cc:23:20
	strb	w10, [x9, x17]
Ltmp71:
	.loc	73 24 19 is_stmt 1              ; src/filltest.cc:24:19
	tst	w15, w11
	b.eq	LBB0_6
Ltmp72:
; %bb.8:                                ;   in Loop: Header=BB0_7 Depth=2
	;DEBUG_VALUE: i <- $w15
	;DEBUG_VALUE: j <- $w8
	;DEBUG_VALUE: main:out <- $w21
	;DEBUG_VALUE: main:argv <- [DW_OP_LLVM_entry_value 1] $x1
	;DEBUG_VALUE: main:n <- $w20
	;DEBUG_VALUE: main:argc <- [DW_OP_LLVM_entry_value 1] $w0
	.loc	73 26 24                        ; src/filltest.cc:26:24
	strb	w13, [x9, x16]
	.loc	73 26 20 is_stmt 0              ; src/filltest.cc:26:20
	add	w16, w22, #2
Ltmp73:
	;DEBUG_VALUE: main:p <- $w16
                                        ; kill: def $w16 killed $w16 def $x16
	.loc	73 0 20                         ; src/filltest.cc:0:20
	b	LBB0_6
Ltmp74:
LBB0_9:
	;DEBUG_VALUE: main:p <- $w22
	;DEBUG_VALUE: main:out <- $w21
	;DEBUG_VALUE: main:argv <- [DW_OP_LLVM_entry_value 1] $x1
	;DEBUG_VALUE: main:n <- $w20
	;DEBUG_VALUE: main:argc <- [DW_OP_LLVM_entry_value 1] $w0
	;DEBUG_VALUE: main:start <- $w19
	.loc	73 33 16 is_stmt 1              ; src/filltest.cc:33:16
	bl	_clock
Ltmp75:
	mov	x23, x0
Ltmp76:
	;DEBUG_VALUE: main:stop <- $w23
	.loc	22 902 12                       ; /Applications/Xcode.app/Contents/Developer/Platforms/MacOSX.platform/Developer/SDKs/MacOSX.sdk/usr/include/c++/v1/ostream:902:12
Lloh11:
	adrp	x0, __ZNSt3__14coutE@GOTPAGE
Lloh12:
	ldr	x0, [x0, __ZNSt3__14coutE@GOTPAGEOFF]
Ltmp77:
	;DEBUG_VALUE: operator<<<std::__1::char_traits<char> >:__os <- $x0
Lloh13:
	adrp	x1, l_.str.2@PAGE
Lloh14:
	add	x1, x1, l_.str.2@PAGEOFF
Ltmp78:
	;DEBUG_VALUE: length:__s <- $x1
	;DEBUG_VALUE: operator<<<std::__1::char_traits<char> >:__str <- $x1
	mov	w2, #10
	bl	__ZNSt3__124__put_character_sequenceIcNS_11char_traitsIcEEEERNS_13basic_ostreamIT_T0_EES7_PKS4_m
Ltmp79:
	.loc	73 34 26                        ; src/filltest.cc:34:26
	mov	x1, x22
	bl	__ZNSt3__113basic_ostreamIcNS_11char_traitsIcEEElsEi
Ltmp80:
	;DEBUG_VALUE: operator<<<std::__1::char_traits<char> >:__os <- $x0
	.loc	22 902 12                       ; /Applications/Xcode.app/Contents/Developer/Platforms/MacOSX.platform/Developer/SDKs/MacOSX.sdk/usr/include/c++/v1/ostream:902:12
Lloh15:
	adrp	x1, l_.str.3@PAGE
Lloh16:
	add	x1, x1, l_.str.3@PAGEOFF
Ltmp81:
	;DEBUG_VALUE: length:__s <- $x1
	;DEBUG_VALUE: operator<<<std::__1::char_traits<char> >:__str <- $x1
	mov	w2, #8
	bl	__ZNSt3__124__put_character_sequenceIcNS_11char_traitsIcEEEERNS_13basic_ostreamIT_T0_EES7_PKS4_m
Ltmp82:
	.loc	73 34 45                        ; src/filltest.cc:34:45
	mov	x1, x21
	bl	__ZNSt3__113basic_ostreamIcNS_11char_traitsIcEEElsEi
Ltmp83:
	;DEBUG_VALUE: operator<<<std::__1::char_traits<char> >:__os <- $x0
	.loc	22 902 12                       ; /Applications/Xcode.app/Contents/Developer/Platforms/MacOSX.platform/Developer/SDKs/MacOSX.sdk/usr/include/c++/v1/ostream:902:12
Lloh17:
	adrp	x1, l_.str.4@PAGE
Lloh18:
	add	x1, x1, l_.str.4@PAGEOFF
Ltmp84:
	;DEBUG_VALUE: length:__s <- $x1
	;DEBUG_VALUE: operator<<<std::__1::char_traits<char> >:__str <- $x1
	mov	w2, #2
	bl	__ZNSt3__124__put_character_sequenceIcNS_11char_traitsIcEEEERNS_13basic_ostreamIT_T0_EES7_PKS4_m
Ltmp85:
	.loc	73 34 71                        ; src/filltest.cc:34:71
	scvtf	d0, w20
	mov	x8, #116548232544256
	movk	x8, #16632, lsl #48
	fmov	d1, x8
	.loc	73 34 73 is_stmt 0              ; src/filltest.cc:34:73
	fmul	d0, d0, d1
	fmov	d1, #3.00000000
	.loc	73 34 82                        ; src/filltest.cc:34:82
	fmul	d0, d0, d1
	.loc	73 34 94                        ; src/filltest.cc:34:94
	sub	w8, w23, w19
	.loc	73 34 88                        ; src/filltest.cc:34:88
	scvtf	d1, w8
	.loc	73 34 86                        ; src/filltest.cc:34:86
	fdiv	d0, d0, d1
	mov	x8, #145685290680320
	movk	x8, #16686, lsl #48
	fmov	d1, x8
	.loc	73 34 103                       ; src/filltest.cc:34:103
	fmul	d0, d0, d1
	mov	x8, #225833675390976
	movk	x8, #16845, lsl #48
	fmov	d1, x8
	.loc	73 34 120                       ; src/filltest.cc:34:120
	fdiv	d0, d0, d1
	.loc	73 34 60                        ; src/filltest.cc:34:60
	bl	__ZNSt3__113basic_ostreamIcNS_11char_traitsIcEEElsEd
Ltmp86:
	;DEBUG_VALUE: operator<<<std::__1::char_traits<char> >:__os <- $x0
	.loc	22 902 12 is_stmt 1             ; /Applications/Xcode.app/Contents/Developer/Platforms/MacOSX.platform/Developer/SDKs/MacOSX.sdk/usr/include/c++/v1/ostream:902:12
Lloh19:
	adrp	x1, l_.str.5@PAGE
Lloh20:
	add	x1, x1, l_.str.5@PAGEOFF
Ltmp87:
	;DEBUG_VALUE: length:__s <- $x1
	;DEBUG_VALUE: operator<<<std::__1::char_traits<char> >:__str <- $x1
	mov	w2, #6
	bl	__ZNSt3__124__put_character_sequenceIcNS_11char_traitsIcEEEERNS_13basic_ostreamIT_T0_EES7_PKS4_m
Ltmp88:
	.loc	22 0 12 is_stmt 0               ; /Applications/Xcode.app/Contents/Developer/Platforms/MacOSX.platform/Developer/SDKs/MacOSX.sdk/usr/include/c++/v1/ostream:0:12
	mov	w0, #0
Ltmp89:
LBB0_10:
	;DEBUG_VALUE: main:argv <- [DW_OP_LLVM_entry_value 1] $x1
	;DEBUG_VALUE: main:argc <- [DW_OP_LLVM_entry_value 1] $w0
	ldur	x8, [x29, #-56]
Lloh21:
	adrp	x9, ___stack_chk_guard@GOTPAGE
Lloh22:
	ldr	x9, [x9, ___stack_chk_guard@GOTPAGEOFF]
Lloh23:
	ldr	x9, [x9]
	cmp	x9, x8
	b.ne	LBB0_12
Ltmp90:
; %bb.11:
	;DEBUG_VALUE: main:argv <- [DW_OP_LLVM_entry_value 1] $x1
	;DEBUG_VALUE: main:argc <- [DW_OP_LLVM_entry_value 1] $w0
	.loc	73 35 1 is_stmt 1               ; src/filltest.cc:35:1
	add	sp, sp, #244, lsl #12           ; =999424
	add	sp, sp, #592
	ldp	x29, x30, [sp, #48]             ; 16-byte Folded Reload
	ldp	x20, x19, [sp, #32]             ; 16-byte Folded Reload
	ldp	x22, x21, [sp, #16]             ; 16-byte Folded Reload
	ldp	x24, x23, [sp], #64             ; 16-byte Folded Reload
	ret
Ltmp91:
LBB0_12:
	;DEBUG_VALUE: main:argv <- [DW_OP_LLVM_entry_value 1] $x1
	;DEBUG_VALUE: main:argc <- [DW_OP_LLVM_entry_value 1] $w0
	.loc	73 0 1 is_stmt 0                ; src/filltest.cc:0:1
	bl	___stack_chk_fail
Ltmp92:
	.loh AdrpLdrGotLdr	Lloh2, Lloh3, Lloh4
	.loh AdrpLdrGot	Lloh0, Lloh1
	.loh AdrpAdd	Lloh9, Lloh10
	.loh AdrpAdd	Lloh7, Lloh8
	.loh AdrpLdrGot	Lloh5, Lloh6
	.loh AdrpAdd	Lloh19, Lloh20
	.loh AdrpAdd	Lloh17, Lloh18
	.loh AdrpAdd	Lloh15, Lloh16
	.loh AdrpAdd	Lloh13, Lloh14
	.loh AdrpLdrGot	Lloh11, Lloh12
	.loh AdrpLdrGotLdr	Lloh21, Lloh22, Lloh23
Lfunc_end0:
	.cfi_endproc
                                        ; -- End function
	.globl	__ZNSt3__124__put_character_sequenceIcNS_11char_traitsIcEEEERNS_13basic_ostreamIT_T0_EES7_PKS4_m ; -- Begin function _ZNSt3__124__put_character_sequenceIcNS_11char_traitsIcEEEERNS_13basic_ostreamIT_T0_EES7_PKS4_m
	.weak_def_can_be_hidden	__ZNSt3__124__put_character_sequenceIcNS_11char_traitsIcEEEERNS_13basic_ostreamIT_T0_EES7_PKS4_m
	.p2align	2
__ZNSt3__124__put_character_sequenceIcNS_11char_traitsIcEEEERNS_13basic_ostreamIT_T0_EES7_PKS4_m: ; @_ZNSt3__124__put_character_sequenceIcNS_11char_traitsIcEEEERNS_13basic_ostreamIT_T0_EES7_PKS4_m
Lfunc_begin1:
	.loc	22 754 0 is_stmt 1              ; /Applications/Xcode.app/Contents/Developer/Platforms/MacOSX.platform/Developer/SDKs/MacOSX.sdk/usr/include/c++/v1/ostream:754:0
	.cfi_startproc
	.cfi_personality 155, ___gxx_personality_v0
	.cfi_lsda 16, Lexception0
; %bb.0:
	;DEBUG_VALUE: __put_character_sequence<char, std::__1::char_traits<char> >:__os <- $x0
	;DEBUG_VALUE: __put_character_sequence<char, std::__1::char_traits<char> >:__str <- $x1
	;DEBUG_VALUE: __put_character_sequence<char, std::__1::char_traits<char> >:__len <- $x2
	sub	sp, sp, #112
	.cfi_def_cfa_offset 112
	stp	x26, x25, [sp, #32]             ; 16-byte Folded Spill
	stp	x24, x23, [sp, #48]             ; 16-byte Folded Spill
	stp	x22, x21, [sp, #64]             ; 16-byte Folded Spill
	stp	x20, x19, [sp, #80]             ; 16-byte Folded Spill
	stp	x29, x30, [sp, #96]             ; 16-byte Folded Spill
	add	x29, sp, #96
	.cfi_def_cfa w29, 16
	.cfi_offset w30, -8
	.cfi_offset w29, -16
	.cfi_offset w19, -24
	.cfi_offset w20, -32
	.cfi_offset w21, -40
	.cfi_offset w22, -48
	.cfi_offset w23, -56
	.cfi_offset w24, -64
	.cfi_offset w25, -72
	.cfi_offset w26, -80
	mov	x21, x2
Ltmp93:
	;DEBUG_VALUE: __put_character_sequence<char, std::__1::char_traits<char> >:__len <- $x21
	mov	x20, x1
Ltmp94:
	;DEBUG_VALUE: __put_character_sequence<char, std::__1::char_traits<char> >:__str <- $x20
	mov	x19, x0
Ltmp95:
	;DEBUG_VALUE: __put_character_sequence<char, std::__1::char_traits<char> >:__os <- $x19
Ltmp0:
	.loc	22 759 57 prologue_end          ; /Applications/Xcode.app/Contents/Developer/Platforms/MacOSX.platform/Developer/SDKs/MacOSX.sdk/usr/include/c++/v1/ostream:759:57
	add	x0, sp, #8
	mov	x1, x19
	bl	__ZNSt3__113basic_ostreamIcNS_11char_traitsIcEEE6sentryC1ERS3_
Ltmp96:
Ltmp1:
; %bb.1:
	;DEBUG_VALUE: __put_character_sequence<char, std::__1::char_traits<char> >:__os <- $x19
	;DEBUG_VALUE: __put_character_sequence<char, std::__1::char_traits<char> >:__str <- $x20
	;DEBUG_VALUE: __put_character_sequence<char, std::__1::char_traits<char> >:__len <- $x21
	;DEBUG_VALUE: operator bool:this <- [DW_OP_plus_uconst 8, DW_OP_stack_value] $sp
	.loc	22 296 44                       ; /Applications/Xcode.app/Contents/Developer/Platforms/MacOSX.platform/Developer/SDKs/MacOSX.sdk/usr/include/c++/v1/ostream:296:44
	ldrb	w8, [sp, #8]
Ltmp97:
	.loc	22 760 13                       ; /Applications/Xcode.app/Contents/Developer/Platforms/MacOSX.platform/Developer/SDKs/MacOSX.sdk/usr/include/c++/v1/ostream:760:13
	cbz	w8, LBB1_11
Ltmp98:
; %bb.2:
	;DEBUG_VALUE: __put_character_sequence<char, std::__1::char_traits<char> >:__os <- $x19
	;DEBUG_VALUE: __put_character_sequence<char, std::__1::char_traits<char> >:__str <- $x20
	;DEBUG_VALUE: __put_character_sequence<char, std::__1::char_traits<char> >:__len <- $x21
	;DEBUG_VALUE: ostreambuf_iterator:this <- undef
	;DEBUG_VALUE: ostreambuf_iterator:__s <- $x19
	;DEBUG_VALUE: ostreambuf_iterator:this <- undef
	;DEBUG_VALUE: ostreambuf_iterator:__s <- $x19
	.loc	21 52 19                        ; /Applications/Xcode.app/Contents/Developer/Platforms/MacOSX.platform/Developer/SDKs/MacOSX.sdk/usr/include/c++/v1/__iterator/ostreambuf_iterator.h:52:19
	ldr	x8, [x19]
	ldur	x8, [x8, #-24]
	add	x22, x19, x8
Ltmp99:
	;DEBUG_VALUE: rdbuf:this <- $x22
	;DEBUG_VALUE: rdbuf:this <- $x22
	.loc	1 357 59                        ; /Applications/Xcode.app/Contents/Developer/Platforms/MacOSX.platform/Developer/SDKs/MacOSX.sdk/usr/include/c++/v1/ios:357:59
	ldr	x23, [x22, #40]
Ltmp100:
	;DEBUG_VALUE: flags:this <- $x22
	.loc	1 470 12                        ; /Applications/Xcode.app/Contents/Developer/Platforms/MacOSX.platform/Developer/SDKs/MacOSX.sdk/usr/include/c++/v1/ios:470:12
	ldr	w25, [x22, #8]
Ltmp101:
	;DEBUG_VALUE: fill:this <- $x22
	.loc	1 783 54                        ; /Applications/Xcode.app/Contents/Developer/Platforms/MacOSX.platform/Developer/SDKs/MacOSX.sdk/usr/include/c++/v1/ios:783:54
	ldr	w8, [x22, #144]
Ltmp102:
	;DEBUG_VALUE: eq_int_type:__c1 <- -1
	;DEBUG_VALUE: eq_int_type:__c2 <- $w8
	.loc	1 783 9 is_stmt 0               ; /Applications/Xcode.app/Contents/Developer/Platforms/MacOSX.platform/Developer/SDKs/MacOSX.sdk/usr/include/c++/v1/ios:783:9
	cmn	w8, #1
	b.ne	LBB1_8
Ltmp103:
; %bb.3:
	;DEBUG_VALUE: fill:this <- $x22
	;DEBUG_VALUE: __put_character_sequence<char, std::__1::char_traits<char> >:__os <- $x19
	;DEBUG_VALUE: __put_character_sequence<char, std::__1::char_traits<char> >:__str <- $x20
	;DEBUG_VALUE: __put_character_sequence<char, std::__1::char_traits<char> >:__len <- $x21
Ltmp2:
	;DEBUG_VALUE: widen:__c <- 32
	;DEBUG_VALUE: widen:this <- $x22
	;DEBUG_VALUE: fill:this <- $x22
	.loc	1 775 41 is_stmt 1              ; /Applications/Xcode.app/Contents/Developer/Platforms/MacOSX.platform/Developer/SDKs/MacOSX.sdk/usr/include/c++/v1/ios:775:41
	add	x8, sp, #24
	mov	x0, x22
	bl	__ZNKSt3__18ios_base6getlocEv
Ltmp104:
Ltmp3:
; %bb.4:
	;DEBUG_VALUE: widen:this <- $x22
	;DEBUG_VALUE: widen:__c <- 32
	;DEBUG_VALUE: fill:this <- $x22
	;DEBUG_VALUE: __put_character_sequence<char, std::__1::char_traits<char> >:__os <- $x19
	;DEBUG_VALUE: __put_character_sequence<char, std::__1::char_traits<char> >:__str <- $x20
	;DEBUG_VALUE: __put_character_sequence<char, std::__1::char_traits<char> >:__len <- $x21
Ltmp4:
	;DEBUG_VALUE: use_facet<std::__1::ctype<char> >:__l <- [DW_OP_plus_uconst 24, DW_OP_stack_value] $sp
	.loc	3 252 44                        ; /Applications/Xcode.app/Contents/Developer/Platforms/MacOSX.platform/Developer/SDKs/MacOSX.sdk/usr/include/c++/v1/__locale:252:44
Lloh24:
	adrp	x1, __ZNSt3__15ctypeIcE2idE@GOTPAGE
Lloh25:
	ldr	x1, [x1, __ZNSt3__15ctypeIcE2idE@GOTPAGEOFF]
	add	x0, sp, #24
	bl	__ZNKSt3__16locale9use_facetERNS0_2idE
Ltmp105:
Ltmp5:
; %bb.5:
	;DEBUG_VALUE: widen:this <- $x22
	;DEBUG_VALUE: widen:__c <- 32
	;DEBUG_VALUE: fill:this <- $x22
	;DEBUG_VALUE: __put_character_sequence<char, std::__1::char_traits<char> >:__os <- $x19
	;DEBUG_VALUE: __put_character_sequence<char, std::__1::char_traits<char> >:__str <- $x20
	;DEBUG_VALUE: __put_character_sequence<char, std::__1::char_traits<char> >:__len <- $x21
	;DEBUG_VALUE: widen:this <- $x0
	;DEBUG_VALUE: widen:__c <- 32
	.loc	3 732 16                        ; /Applications/Xcode.app/Contents/Developer/Platforms/MacOSX.platform/Developer/SDKs/MacOSX.sdk/usr/include/c++/v1/__locale:732:16
	ldr	x8, [x0]
	ldr	x8, [x8, #56]
Ltmp6:
	mov	w1, #32
	blr	x8
Ltmp106:
Ltmp7:
; %bb.6:
	;DEBUG_VALUE: widen:this <- $x22
	;DEBUG_VALUE: widen:__c <- 32
	;DEBUG_VALUE: fill:this <- $x22
	;DEBUG_VALUE: __put_character_sequence<char, std::__1::char_traits<char> >:__os <- $x19
	;DEBUG_VALUE: __put_character_sequence<char, std::__1::char_traits<char> >:__str <- $x20
	;DEBUG_VALUE: __put_character_sequence<char, std::__1::char_traits<char> >:__len <- $x21
Ltmp12:
	.loc	1 0 0 is_stmt 0                 ; /Applications/Xcode.app/Contents/Developer/Platforms/MacOSX.platform/Developer/SDKs/MacOSX.sdk/usr/include/c++/v1/ios:0:0
	mov	x24, x0
	.loc	1 775 5 is_stmt 1               ; /Applications/Xcode.app/Contents/Developer/Platforms/MacOSX.platform/Developer/SDKs/MacOSX.sdk/usr/include/c++/v1/ios:775:5
	add	x0, sp, #24
	bl	__ZNSt3__16localeD1Ev
Ltmp107:
Ltmp13:
; %bb.7:
	;DEBUG_VALUE: fill:this <- $x22
	;DEBUG_VALUE: __put_character_sequence<char, std::__1::char_traits<char> >:__os <- $x19
	;DEBUG_VALUE: __put_character_sequence<char, std::__1::char_traits<char> >:__str <- $x20
	;DEBUG_VALUE: __put_character_sequence<char, std::__1::char_traits<char> >:__len <- $x21
	.loc	1 784 17                        ; /Applications/Xcode.app/Contents/Developer/Platforms/MacOSX.platform/Developer/SDKs/MacOSX.sdk/usr/include/c++/v1/ios:784:17
	str	w24, [x22, #144]
Ltmp108:
LBB1_8:
	;DEBUG_VALUE: fill:this <- $x22
	;DEBUG_VALUE: __put_character_sequence<char, std::__1::char_traits<char> >:__os <- $x19
	;DEBUG_VALUE: __put_character_sequence<char, std::__1::char_traits<char> >:__str <- $x20
	;DEBUG_VALUE: __put_character_sequence<char, std::__1::char_traits<char> >:__len <- $x21
	.loc	1 785 12                        ; /Applications/Xcode.app/Contents/Developer/Platforms/MacOSX.platform/Developer/SDKs/MacOSX.sdk/usr/include/c++/v1/ios:785:12
	ldrsb	w5, [x22, #144]
	mov	w8, #176
Ltmp109:
	.loc	22 765 48                       ; /Applications/Xcode.app/Contents/Developer/Platforms/MacOSX.platform/Developer/SDKs/MacOSX.sdk/usr/include/c++/v1/ostream:765:48
	and	w8, w25, w8
	.loc	22 765 34 is_stmt 0             ; /Applications/Xcode.app/Contents/Developer/Platforms/MacOSX.platform/Developer/SDKs/MacOSX.sdk/usr/include/c++/v1/ostream:765:34
	add	x3, x20, x21
	cmp	w8, #32
	csel	x2, x3, x20, eq
Ltmp14:
	.loc	22 763 17 is_stmt 1             ; /Applications/Xcode.app/Contents/Developer/Platforms/MacOSX.platform/Developer/SDKs/MacOSX.sdk/usr/include/c++/v1/ostream:763:17
	mov	x0, x23
	mov	x1, x20
	mov	x4, x22
	bl	__ZNSt3__116__pad_and_outputIcNS_11char_traitsIcEEEENS_19ostreambuf_iteratorIT_T0_EES6_PKS4_S8_S8_RNS_8ios_baseES4_
Ltmp110:
Ltmp15:
; %bb.9:
	;DEBUG_VALUE: __put_character_sequence<char, std::__1::char_traits<char> >:__os <- $x19
	;DEBUG_VALUE: __put_character_sequence<char, std::__1::char_traits<char> >:__str <- $x20
	;DEBUG_VALUE: __put_character_sequence<char, std::__1::char_traits<char> >:__len <- $x21
	;DEBUG_VALUE: failed:this <- undef
	.loc	22 763 17 is_stmt 0             ; /Applications/Xcode.app/Contents/Developer/Platforms/MacOSX.platform/Developer/SDKs/MacOSX.sdk/usr/include/c++/v1/ostream:763:17
	cbnz	x0, LBB1_11
Ltmp111:
; %bb.10:
	;DEBUG_VALUE: __put_character_sequence<char, std::__1::char_traits<char> >:__os <- $x19
	;DEBUG_VALUE: __put_character_sequence<char, std::__1::char_traits<char> >:__str <- $x20
	;DEBUG_VALUE: __put_character_sequence<char, std::__1::char_traits<char> >:__len <- $x21
	.loc	22 771 17 is_stmt 1             ; /Applications/Xcode.app/Contents/Developer/Platforms/MacOSX.platform/Developer/SDKs/MacOSX.sdk/usr/include/c++/v1/ostream:771:17
	ldr	x8, [x19]
	ldur	x8, [x8, #-24]
	add	x0, x19, x8
Ltmp112:
	;DEBUG_VALUE: setstate:__state <- 5
	;DEBUG_VALUE: setstate:this <- $x0
	;DEBUG_VALUE: setstate:__state <- 5
	;DEBUG_VALUE: setstate:this <- $x0
	.loc	1 557 11                        ; /Applications/Xcode.app/Contents/Developer/Platforms/MacOSX.platform/Developer/SDKs/MacOSX.sdk/usr/include/c++/v1/ios:557:11
	ldr	w8, [x0, #32]
	mov	w9, #5
	.loc	1 557 22 is_stmt 0              ; /Applications/Xcode.app/Contents/Developer/Platforms/MacOSX.platform/Developer/SDKs/MacOSX.sdk/usr/include/c++/v1/ios:557:22
	orr	w1, w8, w9
Ltmp17:
	.loc	1 557 5                         ; /Applications/Xcode.app/Contents/Developer/Platforms/MacOSX.platform/Developer/SDKs/MacOSX.sdk/usr/include/c++/v1/ios:557:5
	bl	__ZNSt3__18ios_base5clearEj
Ltmp113:
Ltmp18:
LBB1_11:
	;DEBUG_VALUE: __put_character_sequence<char, std::__1::char_traits<char> >:__os <- $x19
	;DEBUG_VALUE: __put_character_sequence<char, std::__1::char_traits<char> >:__str <- $x20
	;DEBUG_VALUE: __put_character_sequence<char, std::__1::char_traits<char> >:__len <- $x21
Ltmp22:
	.loc	22 774 5 is_stmt 1              ; /Applications/Xcode.app/Contents/Developer/Platforms/MacOSX.platform/Developer/SDKs/MacOSX.sdk/usr/include/c++/v1/ostream:774:5
	add	x0, sp, #8
	bl	__ZNSt3__113basic_ostreamIcNS_11char_traitsIcEEE6sentryD1Ev
Ltmp114:
Ltmp23:
LBB1_12:
	;DEBUG_VALUE: __put_character_sequence<char, std::__1::char_traits<char> >:__os <- $x19
	;DEBUG_VALUE: __put_character_sequence<char, std::__1::char_traits<char> >:__len <- $x21
	.loc	22 780 5                        ; /Applications/Xcode.app/Contents/Developer/Platforms/MacOSX.platform/Developer/SDKs/MacOSX.sdk/usr/include/c++/v1/ostream:780:5
	mov	x0, x19
	ldp	x29, x30, [sp, #96]             ; 16-byte Folded Reload
	ldp	x20, x19, [sp, #80]             ; 16-byte Folded Reload
Ltmp115:
	;DEBUG_VALUE: __put_character_sequence<char, std::__1::char_traits<char> >:__os <- [DW_OP_LLVM_entry_value 1] $x0
	ldp	x22, x21, [sp, #64]             ; 16-byte Folded Reload
Ltmp116:
	;DEBUG_VALUE: __put_character_sequence<char, std::__1::char_traits<char> >:__len <- [DW_OP_LLVM_entry_value 1] $x2
	ldp	x24, x23, [sp, #48]             ; 16-byte Folded Reload
	ldp	x26, x25, [sp, #32]             ; 16-byte Folded Reload
	add	sp, sp, #112
	ret
Ltmp117:
LBB1_13:
	;DEBUG_VALUE: setstate:__state <- 5
	;DEBUG_VALUE: setstate:__state <- 5
	;DEBUG_VALUE: __put_character_sequence<char, std::__1::char_traits<char> >:__os <- $x19
	;DEBUG_VALUE: __put_character_sequence<char, std::__1::char_traits<char> >:__str <- $x20
	;DEBUG_VALUE: __put_character_sequence<char, std::__1::char_traits<char> >:__len <- $x21
Ltmp19:
	.loc	22 0 5 is_stmt 0                ; /Applications/Xcode.app/Contents/Developer/Platforms/MacOSX.platform/Developer/SDKs/MacOSX.sdk/usr/include/c++/v1/ostream:0:5
	b	LBB1_17
Ltmp118:
LBB1_14:
	;DEBUG_VALUE: widen:this <- $x22
	;DEBUG_VALUE: widen:__c <- 32
	;DEBUG_VALUE: fill:this <- $x22
	;DEBUG_VALUE: __put_character_sequence<char, std::__1::char_traits<char> >:__os <- $x19
	;DEBUG_VALUE: __put_character_sequence<char, std::__1::char_traits<char> >:__str <- $x20
	;DEBUG_VALUE: __put_character_sequence<char, std::__1::char_traits<char> >:__len <- $x21
Ltmp8:
	mov	x20, x0
Ltmp119:
	;DEBUG_VALUE: __put_character_sequence<char, std::__1::char_traits<char> >:__str <- [DW_OP_LLVM_entry_value 1] $x1
Ltmp9:
	.loc	1 775 5 is_stmt 1               ; /Applications/Xcode.app/Contents/Developer/Platforms/MacOSX.platform/Developer/SDKs/MacOSX.sdk/usr/include/c++/v1/ios:775:5
	add	x0, sp, #24
	bl	__ZNSt3__16localeD1Ev
Ltmp120:
Ltmp10:
	.loc	1 0 5 is_stmt 0                 ; /Applications/Xcode.app/Contents/Developer/Platforms/MacOSX.platform/Developer/SDKs/MacOSX.sdk/usr/include/c++/v1/ios:0:5
	b	LBB1_18
Ltmp121:
LBB1_15:
	;DEBUG_VALUE: __put_character_sequence<char, std::__1::char_traits<char> >:__str <- [DW_OP_LLVM_entry_value 1] $x1
	;DEBUG_VALUE: widen:this <- $x22
	;DEBUG_VALUE: widen:__c <- 32
	;DEBUG_VALUE: fill:this <- $x22
	;DEBUG_VALUE: __put_character_sequence<char, std::__1::char_traits<char> >:__os <- $x19
	;DEBUG_VALUE: __put_character_sequence<char, std::__1::char_traits<char> >:__len <- $x21
Ltmp11:
	.loc	1 775 5                         ; /Applications/Xcode.app/Contents/Developer/Platforms/MacOSX.platform/Developer/SDKs/MacOSX.sdk/usr/include/c++/v1/ios:775:5
	bl	___clang_call_terminate
Ltmp122:
LBB1_16:
	;DEBUG_VALUE: fill:this <- $x22
	;DEBUG_VALUE: __put_character_sequence<char, std::__1::char_traits<char> >:__os <- $x19
	;DEBUG_VALUE: __put_character_sequence<char, std::__1::char_traits<char> >:__str <- $x20
	;DEBUG_VALUE: __put_character_sequence<char, std::__1::char_traits<char> >:__len <- $x21
Ltmp16:
LBB1_17:
	;DEBUG_VALUE: __put_character_sequence<char, std::__1::char_traits<char> >:__os <- $x19
	;DEBUG_VALUE: __put_character_sequence<char, std::__1::char_traits<char> >:__str <- $x20
	;DEBUG_VALUE: __put_character_sequence<char, std::__1::char_traits<char> >:__len <- $x21
	.loc	1 0 5                           ; /Applications/Xcode.app/Contents/Developer/Platforms/MacOSX.platform/Developer/SDKs/MacOSX.sdk/usr/include/c++/v1/ios:0:5
	mov	x20, x0
Ltmp123:
	;DEBUG_VALUE: __put_character_sequence<char, std::__1::char_traits<char> >:__str <- [DW_OP_LLVM_entry_value 1] $x1
LBB1_18:
	;DEBUG_VALUE: __put_character_sequence<char, std::__1::char_traits<char> >:__str <- [DW_OP_LLVM_entry_value 1] $x1
	;DEBUG_VALUE: __put_character_sequence<char, std::__1::char_traits<char> >:__os <- $x19
	;DEBUG_VALUE: __put_character_sequence<char, std::__1::char_traits<char> >:__len <- $x21
Ltmp20:
	.loc	22 774 5 is_stmt 1              ; /Applications/Xcode.app/Contents/Developer/Platforms/MacOSX.platform/Developer/SDKs/MacOSX.sdk/usr/include/c++/v1/ostream:774:5
	add	x0, sp, #8
	bl	__ZNSt3__113basic_ostreamIcNS_11char_traitsIcEEE6sentryD1Ev
Ltmp124:
Ltmp21:
	.loc	22 0 5 is_stmt 0                ; /Applications/Xcode.app/Contents/Developer/Platforms/MacOSX.platform/Developer/SDKs/MacOSX.sdk/usr/include/c++/v1/ostream:0:5
	b	LBB1_20
Ltmp125:
LBB1_19:
	;DEBUG_VALUE: __put_character_sequence<char, std::__1::char_traits<char> >:__os <- $x19
	;DEBUG_VALUE: __put_character_sequence<char, std::__1::char_traits<char> >:__str <- $x20
	;DEBUG_VALUE: __put_character_sequence<char, std::__1::char_traits<char> >:__len <- $x21
Ltmp24:
	mov	x20, x0
Ltmp126:
	;DEBUG_VALUE: __put_character_sequence<char, std::__1::char_traits<char> >:__str <- [DW_OP_LLVM_entry_value 1] $x1
LBB1_20:
	;DEBUG_VALUE: __put_character_sequence<char, std::__1::char_traits<char> >:__str <- [DW_OP_LLVM_entry_value 1] $x1
	;DEBUG_VALUE: __put_character_sequence<char, std::__1::char_traits<char> >:__os <- $x19
	;DEBUG_VALUE: __put_character_sequence<char, std::__1::char_traits<char> >:__len <- $x21
	.loc	22 774 5                        ; /Applications/Xcode.app/Contents/Developer/Platforms/MacOSX.platform/Developer/SDKs/MacOSX.sdk/usr/include/c++/v1/ostream:774:5
	mov	x0, x20
	bl	___cxa_begin_catch
Ltmp127:
	.loc	22 777 9 is_stmt 1              ; /Applications/Xcode.app/Contents/Developer/Platforms/MacOSX.platform/Developer/SDKs/MacOSX.sdk/usr/include/c++/v1/ostream:777:9
	ldr	x8, [x19]
	ldur	x8, [x8, #-24]
	add	x0, x19, x8
Ltmp25:
	.loc	22 777 14 is_stmt 0             ; /Applications/Xcode.app/Contents/Developer/Platforms/MacOSX.platform/Developer/SDKs/MacOSX.sdk/usr/include/c++/v1/ostream:777:14
	bl	__ZNSt3__18ios_base33__set_badbit_and_consider_rethrowEv
Ltmp128:
Ltmp26:
; %bb.21:
	;DEBUG_VALUE: __put_character_sequence<char, std::__1::char_traits<char> >:__str <- [DW_OP_LLVM_entry_value 1] $x1
	;DEBUG_VALUE: __put_character_sequence<char, std::__1::char_traits<char> >:__os <- $x19
	;DEBUG_VALUE: __put_character_sequence<char, std::__1::char_traits<char> >:__len <- $x21
	.loc	22 778 5 is_stmt 1              ; /Applications/Xcode.app/Contents/Developer/Platforms/MacOSX.platform/Developer/SDKs/MacOSX.sdk/usr/include/c++/v1/ostream:778:5
	bl	___cxa_end_catch
Ltmp129:
	.loc	22 0 5 is_stmt 0                ; /Applications/Xcode.app/Contents/Developer/Platforms/MacOSX.platform/Developer/SDKs/MacOSX.sdk/usr/include/c++/v1/ostream:0:5
	b	LBB1_12
Ltmp130:
LBB1_22:
	;DEBUG_VALUE: __put_character_sequence<char, std::__1::char_traits<char> >:__str <- [DW_OP_LLVM_entry_value 1] $x1
	;DEBUG_VALUE: __put_character_sequence<char, std::__1::char_traits<char> >:__os <- $x19
	;DEBUG_VALUE: __put_character_sequence<char, std::__1::char_traits<char> >:__len <- $x21
Ltmp27:
	mov	x19, x0
Ltmp131:
	;DEBUG_VALUE: __put_character_sequence<char, std::__1::char_traits<char> >:__os <- [DW_OP_LLVM_entry_value 1] $x0
Ltmp28:
	.loc	22 778 5                        ; /Applications/Xcode.app/Contents/Developer/Platforms/MacOSX.platform/Developer/SDKs/MacOSX.sdk/usr/include/c++/v1/ostream:778:5
	bl	___cxa_end_catch
Ltmp132:
Ltmp29:
; %bb.23:
	;DEBUG_VALUE: __put_character_sequence<char, std::__1::char_traits<char> >:__os <- [DW_OP_LLVM_entry_value 1] $x0
	;DEBUG_VALUE: __put_character_sequence<char, std::__1::char_traits<char> >:__str <- [DW_OP_LLVM_entry_value 1] $x1
	;DEBUG_VALUE: __put_character_sequence<char, std::__1::char_traits<char> >:__len <- $x21
	.loc	22 0 5                          ; /Applications/Xcode.app/Contents/Developer/Platforms/MacOSX.platform/Developer/SDKs/MacOSX.sdk/usr/include/c++/v1/ostream:0:5
	mov	x0, x19
	bl	__Unwind_Resume
Ltmp133:
LBB1_24:
	;DEBUG_VALUE: __put_character_sequence<char, std::__1::char_traits<char> >:__str <- [DW_OP_LLVM_entry_value 1] $x1
	;DEBUG_VALUE: __put_character_sequence<char, std::__1::char_traits<char> >:__len <- $x21
Ltmp30:
	.loc	22 774 5 is_stmt 1              ; /Applications/Xcode.app/Contents/Developer/Platforms/MacOSX.platform/Developer/SDKs/MacOSX.sdk/usr/include/c++/v1/ostream:774:5
	bl	___clang_call_terminate
Ltmp134:
	.loh AdrpLdrGot	Lloh24, Lloh25
Lfunc_end1:
	.cfi_endproc
	.section	__TEXT,__gcc_except_tab
	.p2align	2
GCC_except_table1:
Lexception0:
	.byte	255                             ; @LPStart Encoding = omit
	.byte	155                             ; @TType Encoding = indirect pcrel sdata4
	.uleb128 Lttbase0-Lttbaseref0
Lttbaseref0:
	.byte	1                               ; Call site Encoding = uleb128
	.uleb128 Lcst_end0-Lcst_begin0
Lcst_begin0:
	.uleb128 Ltmp0-Lfunc_begin1             ; >> Call Site 1 <<
	.uleb128 Ltmp1-Ltmp0                    ;   Call between Ltmp0 and Ltmp1
	.uleb128 Ltmp24-Lfunc_begin1            ;     jumps to Ltmp24
	.byte	1                               ;   On action: 1
	.uleb128 Ltmp2-Lfunc_begin1             ; >> Call Site 2 <<
	.uleb128 Ltmp3-Ltmp2                    ;   Call between Ltmp2 and Ltmp3
	.uleb128 Ltmp16-Lfunc_begin1            ;     jumps to Ltmp16
	.byte	1                               ;   On action: 1
	.uleb128 Ltmp4-Lfunc_begin1             ; >> Call Site 3 <<
	.uleb128 Ltmp7-Ltmp4                    ;   Call between Ltmp4 and Ltmp7
	.uleb128 Ltmp8-Lfunc_begin1             ;     jumps to Ltmp8
	.byte	1                               ;   On action: 1
	.uleb128 Ltmp12-Lfunc_begin1            ; >> Call Site 4 <<
	.uleb128 Ltmp15-Ltmp12                  ;   Call between Ltmp12 and Ltmp15
	.uleb128 Ltmp16-Lfunc_begin1            ;     jumps to Ltmp16
	.byte	1                               ;   On action: 1
	.uleb128 Ltmp17-Lfunc_begin1            ; >> Call Site 5 <<
	.uleb128 Ltmp18-Ltmp17                  ;   Call between Ltmp17 and Ltmp18
	.uleb128 Ltmp19-Lfunc_begin1            ;     jumps to Ltmp19
	.byte	1                               ;   On action: 1
	.uleb128 Ltmp22-Lfunc_begin1            ; >> Call Site 6 <<
	.uleb128 Ltmp23-Ltmp22                  ;   Call between Ltmp22 and Ltmp23
	.uleb128 Ltmp24-Lfunc_begin1            ;     jumps to Ltmp24
	.byte	1                               ;   On action: 1
	.uleb128 Ltmp9-Lfunc_begin1             ; >> Call Site 7 <<
	.uleb128 Ltmp10-Ltmp9                   ;   Call between Ltmp9 and Ltmp10
	.uleb128 Ltmp11-Lfunc_begin1            ;     jumps to Ltmp11
	.byte	1                               ;   On action: 1
	.uleb128 Ltmp20-Lfunc_begin1            ; >> Call Site 8 <<
	.uleb128 Ltmp21-Ltmp20                  ;   Call between Ltmp20 and Ltmp21
	.uleb128 Ltmp30-Lfunc_begin1            ;     jumps to Ltmp30
	.byte	1                               ;   On action: 1
	.uleb128 Ltmp21-Lfunc_begin1            ; >> Call Site 9 <<
	.uleb128 Ltmp25-Ltmp21                  ;   Call between Ltmp21 and Ltmp25
	.byte	0                               ;     has no landing pad
	.byte	0                               ;   On action: cleanup
	.uleb128 Ltmp25-Lfunc_begin1            ; >> Call Site 10 <<
	.uleb128 Ltmp26-Ltmp25                  ;   Call between Ltmp25 and Ltmp26
	.uleb128 Ltmp27-Lfunc_begin1            ;     jumps to Ltmp27
	.byte	0                               ;   On action: cleanup
	.uleb128 Ltmp26-Lfunc_begin1            ; >> Call Site 11 <<
	.uleb128 Ltmp28-Ltmp26                  ;   Call between Ltmp26 and Ltmp28
	.byte	0                               ;     has no landing pad
	.byte	0                               ;   On action: cleanup
	.uleb128 Ltmp28-Lfunc_begin1            ; >> Call Site 12 <<
	.uleb128 Ltmp29-Ltmp28                  ;   Call between Ltmp28 and Ltmp29
	.uleb128 Ltmp30-Lfunc_begin1            ;     jumps to Ltmp30
	.byte	1                               ;   On action: 1
	.uleb128 Ltmp29-Lfunc_begin1            ; >> Call Site 13 <<
	.uleb128 Lfunc_end1-Ltmp29              ;   Call between Ltmp29 and Lfunc_end1
	.byte	0                               ;     has no landing pad
	.byte	0                               ;   On action: cleanup
Lcst_end0:
	.byte	1                               ; >> Action Record 1 <<
                                        ;   Catch TypeInfo 1
	.byte	0                               ;   No further actions
	.p2align	2
                                        ; >> Catch TypeInfos <<
	.long	0                               ; TypeInfo 1
Lttbase0:
	.p2align	2
                                        ; -- End function
	.section	__TEXT,__text,regular,pure_instructions
	.private_extern	__ZNSt3__116__pad_and_outputIcNS_11char_traitsIcEEEENS_19ostreambuf_iteratorIT_T0_EES6_PKS4_S8_S8_RNS_8ios_baseES4_ ; -- Begin function _ZNSt3__116__pad_and_outputIcNS_11char_traitsIcEEEENS_19ostreambuf_iteratorIT_T0_EES6_PKS4_S8_S8_RNS_8ios_baseES4_
	.globl	__ZNSt3__116__pad_and_outputIcNS_11char_traitsIcEEEENS_19ostreambuf_iteratorIT_T0_EES6_PKS4_S8_S8_RNS_8ios_baseES4_
	.weak_def_can_be_hidden	__ZNSt3__116__pad_and_outputIcNS_11char_traitsIcEEEENS_19ostreambuf_iteratorIT_T0_EES6_PKS4_S8_S8_RNS_8ios_baseES4_
	.p2align	2
__ZNSt3__116__pad_and_outputIcNS_11char_traitsIcEEEENS_19ostreambuf_iteratorIT_T0_EES6_PKS4_S8_S8_RNS_8ios_baseES4_: ; @_ZNSt3__116__pad_and_outputIcNS_11char_traitsIcEEEENS_19ostreambuf_iteratorIT_T0_EES6_PKS4_S8_S8_RNS_8ios_baseES4_
Lfunc_begin2:
	.file	74 "/Applications/Xcode.app/Contents/Developer/Platforms/MacOSX.platform/Developer/SDKs/MacOSX.sdk/usr/include/c++/v1" "locale"
	.loc	74 1421 0                       ; /Applications/Xcode.app/Contents/Developer/Platforms/MacOSX.platform/Developer/SDKs/MacOSX.sdk/usr/include/c++/v1/locale:1421:0
	.cfi_startproc
	.cfi_personality 155, ___gxx_personality_v0
	.cfi_lsda 16, Lexception1
; %bb.0:
	;DEBUG_VALUE: __pad_and_output<char, std::__1::char_traits<char> >:__s <- $x0
	;DEBUG_VALUE: __pad_and_output<char, std::__1::char_traits<char> >:__ob <- $x1
	;DEBUG_VALUE: __pad_and_output<char, std::__1::char_traits<char> >:__op <- $x2
	;DEBUG_VALUE: __pad_and_output<char, std::__1::char_traits<char> >:__oe <- $x3
	;DEBUG_VALUE: __pad_and_output<char, std::__1::char_traits<char> >:__iob <- $x4
	;DEBUG_VALUE: __pad_and_output<char, std::__1::char_traits<char> >:__fl <- $w5
	;DEBUG_VALUE: __pad_and_output<char, std::__1::char_traits<char> >:__fl <- $w5
	;DEBUG_VALUE: __pad_and_output<char, std::__1::char_traits<char> >:__iob <- $x4
	;DEBUG_VALUE: __pad_and_output<char, std::__1::char_traits<char> >:__oe <- $x3
	;DEBUG_VALUE: __pad_and_output<char, std::__1::char_traits<char> >:__op <- $x2
	sub	sp, sp, #112
	.cfi_def_cfa_offset 112
	stp	x26, x25, [sp, #32]             ; 16-byte Folded Spill
	stp	x24, x23, [sp, #48]             ; 16-byte Folded Spill
	stp	x22, x21, [sp, #64]             ; 16-byte Folded Spill
	stp	x20, x19, [sp, #80]             ; 16-byte Folded Spill
	stp	x29, x30, [sp, #96]             ; 16-byte Folded Spill
	add	x29, sp, #96
	.cfi_def_cfa w29, 16
	.cfi_offset w30, -8
	.cfi_offset w29, -16
	.cfi_offset w19, -24
	.cfi_offset w20, -32
	.cfi_offset w21, -40
	.cfi_offset w22, -48
	.cfi_offset w23, -56
	.cfi_offset w24, -64
	.cfi_offset w25, -72
	.cfi_offset w26, -80
	mov	x19, x0
Ltmp135:
	;DEBUG_VALUE: __pad_and_output<char, std::__1::char_traits<char> >:__s <- $x19
	.loc	74 1422 9 prologue_end          ; /Applications/Xcode.app/Contents/Developer/Platforms/MacOSX.platform/Developer/SDKs/MacOSX.sdk/usr/include/c++/v1/locale:1422:9
	cbz	x0, LBB2_16
Ltmp136:
; %bb.1:
	;DEBUG_VALUE: __pad_and_output<char, std::__1::char_traits<char> >:__s <- $x19
	;DEBUG_VALUE: __pad_and_output<char, std::__1::char_traits<char> >:__fl <- $w5
	;DEBUG_VALUE: __pad_and_output<char, std::__1::char_traits<char> >:__iob <- $x4
	;DEBUG_VALUE: __pad_and_output<char, std::__1::char_traits<char> >:__oe <- $x3
	;DEBUG_VALUE: __pad_and_output<char, std::__1::char_traits<char> >:__op <- $x2
	;DEBUG_VALUE: __pad_and_output<char, std::__1::char_traits<char> >:__ob <- $x1
	.loc	74 0 9 is_stmt 0                ; /Applications/Xcode.app/Contents/Developer/Platforms/MacOSX.platform/Developer/SDKs/MacOSX.sdk/usr/include/c++/v1/locale:0:9
	mov	x24, x5
Ltmp137:
	;DEBUG_VALUE: __pad_and_output<char, std::__1::char_traits<char> >:__fl <- $w24
	mov	x20, x4
Ltmp138:
	;DEBUG_VALUE: __pad_and_output<char, std::__1::char_traits<char> >:__iob <- $x20
	mov	x22, x3
Ltmp139:
	;DEBUG_VALUE: __pad_and_output<char, std::__1::char_traits<char> >:__oe <- $x22
	mov	x21, x2
Ltmp140:
	;DEBUG_VALUE: __pad_and_output<char, std::__1::char_traits<char> >:__op <- $x21
	;DEBUG_VALUE: __pad_and_output<char, std::__1::char_traits<char> >:__fl <- $w24
	.loc	1 532 12 is_stmt 1              ; /Applications/Xcode.app/Contents/Developer/Platforms/MacOSX.platform/Developer/SDKs/MacOSX.sdk/usr/include/c++/v1/ios:532:12
	ldr	x8, [x4, #24]
Ltmp141:
	;DEBUG_VALUE: __pad_and_output<char, std::__1::char_traits<char> >:__ns <- $x8
	.loc	74 1424 28                      ; /Applications/Xcode.app/Contents/Developer/Platforms/MacOSX.platform/Developer/SDKs/MacOSX.sdk/usr/include/c++/v1/locale:1424:28
	sub	x9, x3, x1
	;DEBUG_VALUE: width:this <- $x20
Ltmp142:
	;DEBUG_VALUE: __pad_and_output<char, std::__1::char_traits<char> >:__sz <- $x9
	.loc	74 1426 9                       ; /Applications/Xcode.app/Contents/Developer/Platforms/MacOSX.platform/Developer/SDKs/MacOSX.sdk/usr/include/c++/v1/locale:1426:9
	subs	x8, x8, x9
Ltmp143:
	csel	x23, x8, xzr, gt
Ltmp144:
	;DEBUG_VALUE: __pad_and_output<char, std::__1::char_traits<char> >:__ns <- $x23
	.loc	74 1430 28                      ; /Applications/Xcode.app/Contents/Developer/Platforms/MacOSX.platform/Developer/SDKs/MacOSX.sdk/usr/include/c++/v1/locale:1430:28
	sub	x25, x2, x1
Ltmp145:
	;DEBUG_VALUE: __pad_and_output<char, std::__1::char_traits<char> >:__np <- $x25
	.loc	74 1431 9                       ; /Applications/Xcode.app/Contents/Developer/Platforms/MacOSX.platform/Developer/SDKs/MacOSX.sdk/usr/include/c++/v1/locale:1431:9
	cmp	x25, #1
	b.lt	LBB2_3
Ltmp146:
; %bb.2:
	;DEBUG_VALUE: __pad_and_output<char, std::__1::char_traits<char> >:__np <- $x25
	;DEBUG_VALUE: __pad_and_output<char, std::__1::char_traits<char> >:__ns <- $x23
	;DEBUG_VALUE: __pad_and_output<char, std::__1::char_traits<char> >:__sz <- $x9
	;DEBUG_VALUE: __pad_and_output<char, std::__1::char_traits<char> >:__op <- $x21
	;DEBUG_VALUE: __pad_and_output<char, std::__1::char_traits<char> >:__oe <- $x22
	;DEBUG_VALUE: __pad_and_output<char, std::__1::char_traits<char> >:__iob <- $x20
	;DEBUG_VALUE: __pad_and_output<char, std::__1::char_traits<char> >:__fl <- $w24
	;DEBUG_VALUE: __pad_and_output<char, std::__1::char_traits<char> >:__s <- $x19
	;DEBUG_VALUE: __pad_and_output<char, std::__1::char_traits<char> >:__ob <- $x1
	;DEBUG_VALUE: sputn:this <- $x19
	;DEBUG_VALUE: sputn:__s <- $x1
	;DEBUG_VALUE: sputn:__n <- $x25
	.loc	20 232 14                       ; /Applications/Xcode.app/Contents/Developer/Platforms/MacOSX.platform/Developer/SDKs/MacOSX.sdk/usr/include/c++/v1/streambuf:232:14
	ldr	x8, [x19]
	ldr	x8, [x8, #96]
	mov	x0, x19
	mov	x2, x25
	blr	x8
Ltmp147:
	;DEBUG_VALUE: __pad_and_output<char, std::__1::char_traits<char> >:__ob <- [DW_OP_LLVM_entry_value 1] $x1
	.loc	74 1433 13                      ; /Applications/Xcode.app/Contents/Developer/Platforms/MacOSX.platform/Developer/SDKs/MacOSX.sdk/usr/include/c++/v1/locale:1433:13
	cmp	x0, x25
	b.ne	LBB2_15
Ltmp148:
LBB2_3:
	;DEBUG_VALUE: __pad_and_output<char, std::__1::char_traits<char> >:__np <- $x25
	;DEBUG_VALUE: __pad_and_output<char, std::__1::char_traits<char> >:__ns <- $x23
	;DEBUG_VALUE: __pad_and_output<char, std::__1::char_traits<char> >:__op <- $x21
	;DEBUG_VALUE: __pad_and_output<char, std::__1::char_traits<char> >:__oe <- $x22
	;DEBUG_VALUE: __pad_and_output<char, std::__1::char_traits<char> >:__iob <- $x20
	;DEBUG_VALUE: __pad_and_output<char, std::__1::char_traits<char> >:__fl <- $w24
	;DEBUG_VALUE: __pad_and_output<char, std::__1::char_traits<char> >:__s <- $x19
	;DEBUG_VALUE: __pad_and_output<char, std::__1::char_traits<char> >:__fl <- $w24
	.loc	74 1439 9                       ; /Applications/Xcode.app/Contents/Developer/Platforms/MacOSX.platform/Developer/SDKs/MacOSX.sdk/usr/include/c++/v1/locale:1439:9
	cmp	x23, #1
	b.lt	LBB2_12
Ltmp149:
; %bb.4:
	;DEBUG_VALUE: __pad_and_output<char, std::__1::char_traits<char> >:__np <- $x25
	;DEBUG_VALUE: __pad_and_output<char, std::__1::char_traits<char> >:__ns <- $x23
	;DEBUG_VALUE: __pad_and_output<char, std::__1::char_traits<char> >:__op <- $x21
	;DEBUG_VALUE: __pad_and_output<char, std::__1::char_traits<char> >:__oe <- $x22
	;DEBUG_VALUE: __pad_and_output<char, std::__1::char_traits<char> >:__iob <- $x20
	;DEBUG_VALUE: __pad_and_output<char, std::__1::char_traits<char> >:__fl <- $w24
	;DEBUG_VALUE: __pad_and_output<char, std::__1::char_traits<char> >:__s <- $x19
	;DEBUG_VALUE: __pad_and_output<char, std::__1::char_traits<char> >:__fl <- $w24
	.loc	74 0 9 is_stmt 0                ; /Applications/Xcode.app/Contents/Developer/Platforms/MacOSX.platform/Developer/SDKs/MacOSX.sdk/usr/include/c++/v1/locale:0:9
	mov	x8, #9223372036854775792
Ltmp150:
	;DEBUG_VALUE: __init:__c <- $w24
	;DEBUG_VALUE: __init:__n <- $x23
	;DEBUG_VALUE: __init:this <- [DW_OP_plus_uconst 8, DW_OP_stack_value] $sp
	;DEBUG_VALUE: basic_string:__c <- $w24
	;DEBUG_VALUE: basic_string:__n <- $x23
	;DEBUG_VALUE: basic_string:this <- [DW_OP_plus_uconst 8, DW_OP_stack_value] $sp
	;DEBUG_VALUE: basic_string:__c <- $w24
	;DEBUG_VALUE: basic_string:__n <- $x23
	;DEBUG_VALUE: basic_string:this <- [DW_OP_plus_uconst 8, DW_OP_stack_value] $sp
	.loc	7 2106 9 is_stmt 1              ; /Applications/Xcode.app/Contents/Developer/Platforms/MacOSX.platform/Developer/SDKs/MacOSX.sdk/usr/include/c++/v1/string:2106:9
	cmp	x23, x8
	b.hs	LBB2_17
Ltmp151:
; %bb.5:
	;DEBUG_VALUE: basic_string:this <- [DW_OP_plus_uconst 8, DW_OP_stack_value] $sp
	;DEBUG_VALUE: basic_string:__n <- $x23
	;DEBUG_VALUE: basic_string:__c <- $w24
	;DEBUG_VALUE: basic_string:this <- [DW_OP_plus_uconst 8, DW_OP_stack_value] $sp
	;DEBUG_VALUE: basic_string:__n <- $x23
	;DEBUG_VALUE: basic_string:__c <- $w24
	;DEBUG_VALUE: __init:this <- [DW_OP_plus_uconst 8, DW_OP_stack_value] $sp
	;DEBUG_VALUE: __init:__n <- $x23
	;DEBUG_VALUE: __init:__c <- $w24
	;DEBUG_VALUE: __pad_and_output<char, std::__1::char_traits<char> >:__np <- $x25
	;DEBUG_VALUE: __pad_and_output<char, std::__1::char_traits<char> >:__ns <- $x23
	;DEBUG_VALUE: __pad_and_output<char, std::__1::char_traits<char> >:__op <- $x21
	;DEBUG_VALUE: __pad_and_output<char, std::__1::char_traits<char> >:__oe <- $x22
	;DEBUG_VALUE: __pad_and_output<char, std::__1::char_traits<char> >:__iob <- $x20
	;DEBUG_VALUE: __pad_and_output<char, std::__1::char_traits<char> >:__fl <- $w24
	;DEBUG_VALUE: __pad_and_output<char, std::__1::char_traits<char> >:__s <- $x19
	;DEBUG_VALUE: __pad_and_output<char, std::__1::char_traits<char> >:__fl <- $w24
	;DEBUG_VALUE: basic_string:__n <- $x23
	;DEBUG_VALUE: basic_string:__c <- $w24
	;DEBUG_VALUE: basic_string:__n <- $x23
	;DEBUG_VALUE: basic_string:__c <- $w24
	;DEBUG_VALUE: __init:__n <- $x23
	;DEBUG_VALUE: __init:__c <- $w24
	;DEBUG_VALUE: __fits_in_sso:__sz <- $x23
	.loc	7 2109 9                        ; /Applications/Xcode.app/Contents/Developer/Platforms/MacOSX.platform/Developer/SDKs/MacOSX.sdk/usr/include/c++/v1/string:2109:9
	cmp	x23, #22
	b.hi	LBB2_7
Ltmp152:
; %bb.6:
	;DEBUG_VALUE: basic_string:this <- [DW_OP_plus_uconst 8, DW_OP_stack_value] $sp
	;DEBUG_VALUE: basic_string:__n <- $x23
	;DEBUG_VALUE: basic_string:__c <- $w24
	;DEBUG_VALUE: basic_string:this <- [DW_OP_plus_uconst 8, DW_OP_stack_value] $sp
	;DEBUG_VALUE: basic_string:__n <- $x23
	;DEBUG_VALUE: basic_string:__c <- $w24
	;DEBUG_VALUE: __init:this <- [DW_OP_plus_uconst 8, DW_OP_stack_value] $sp
	;DEBUG_VALUE: __init:__n <- $x23
	;DEBUG_VALUE: __init:__c <- $w24
	;DEBUG_VALUE: __pad_and_output<char, std::__1::char_traits<char> >:__np <- $x25
	;DEBUG_VALUE: __pad_and_output<char, std::__1::char_traits<char> >:__ns <- $x23
	;DEBUG_VALUE: __pad_and_output<char, std::__1::char_traits<char> >:__op <- $x21
	;DEBUG_VALUE: __pad_and_output<char, std::__1::char_traits<char> >:__oe <- $x22
	;DEBUG_VALUE: __pad_and_output<char, std::__1::char_traits<char> >:__iob <- $x20
	;DEBUG_VALUE: __pad_and_output<char, std::__1::char_traits<char> >:__fl <- $w24
	;DEBUG_VALUE: __pad_and_output<char, std::__1::char_traits<char> >:__s <- $x19
	.loc	7 0 9 is_stmt 0                 ; /Applications/Xcode.app/Contents/Developer/Platforms/MacOSX.platform/Developer/SDKs/MacOSX.sdk/usr/include/c++/v1/string:0:9
	add	x25, sp, #8
Ltmp153:
	;DEBUG_VALUE: __set_short_size:__s <- $x23
	;DEBUG_VALUE: __set_short_size:this <- [DW_OP_plus_uconst 8, DW_OP_stack_value] $sp
	.loc	7 1569 34 is_stmt 1             ; /Applications/Xcode.app/Contents/Developer/Platforms/MacOSX.platform/Developer/SDKs/MacOSX.sdk/usr/include/c++/v1/string:1569:34
	and	w8, w23, #0x7f
	.loc	7 1570 37                       ; /Applications/Xcode.app/Contents/Developer/Platforms/MacOSX.platform/Developer/SDKs/MacOSX.sdk/usr/include/c++/v1/string:1570:37
	strb	w8, [sp, #31]
Ltmp154:
	;DEBUG_VALUE: __init:__p <- [DW_OP_plus_uconst 8, DW_OP_stack_value] $sp
	.loc	7 0 37 is_stmt 0                ; /Applications/Xcode.app/Contents/Developer/Platforms/MacOSX.platform/Developer/SDKs/MacOSX.sdk/usr/include/c++/v1/string:0:37
	b	LBB2_8
Ltmp155:
LBB2_7:
	;DEBUG_VALUE: basic_string:this <- [DW_OP_plus_uconst 8, DW_OP_stack_value] $sp
	;DEBUG_VALUE: basic_string:__n <- $x23
	;DEBUG_VALUE: basic_string:__c <- $w24
	;DEBUG_VALUE: basic_string:this <- [DW_OP_plus_uconst 8, DW_OP_stack_value] $sp
	;DEBUG_VALUE: basic_string:__n <- $x23
	;DEBUG_VALUE: basic_string:__c <- $w24
	;DEBUG_VALUE: __init:this <- [DW_OP_plus_uconst 8, DW_OP_stack_value] $sp
	;DEBUG_VALUE: __init:__n <- $x23
	;DEBUG_VALUE: __init:__c <- $w24
	;DEBUG_VALUE: __pad_and_output<char, std::__1::char_traits<char> >:__np <- $x25
	;DEBUG_VALUE: __pad_and_output<char, std::__1::char_traits<char> >:__ns <- $x23
	;DEBUG_VALUE: __pad_and_output<char, std::__1::char_traits<char> >:__op <- $x21
	;DEBUG_VALUE: __pad_and_output<char, std::__1::char_traits<char> >:__oe <- $x22
	;DEBUG_VALUE: __pad_and_output<char, std::__1::char_traits<char> >:__iob <- $x20
	;DEBUG_VALUE: __pad_and_output<char, std::__1::char_traits<char> >:__fl <- $w24
	;DEBUG_VALUE: __pad_and_output<char, std::__1::char_traits<char> >:__s <- $x19
	;DEBUG_VALUE: __recommend:__s <- $x23
	.loc	7 1635 13 is_stmt 1             ; /Applications/Xcode.app/Contents/Developer/Platforms/MacOSX.platform/Developer/SDKs/MacOSX.sdk/usr/include/c++/v1/string:1635:13
	add	x8, x23, #16
	and	x26, x8, #0xfffffffffffffff0
Ltmp156:
	;DEBUG_VALUE: __libcpp_allocate:__align <- 1
	;DEBUG_VALUE: allocate:this <- [DW_OP_plus_uconst 8, DW_OP_stack_value] $sp
	;DEBUG_VALUE: __allocate_at_least<std::__1::allocator<char> >:__alloc <- [DW_OP_plus_uconst 8, DW_OP_stack_value] $sp
	;DEBUG_VALUE: __libcpp_operator_new<unsigned long>:__args <- $x26
	;DEBUG_VALUE: __libcpp_allocate:__size <- $x26
	;DEBUG_VALUE: allocate:__n <- $x26
	;DEBUG_VALUE: __allocate_at_least<std::__1::allocator<char> >:__n <- $x26
	.file	75 "/Applications/Xcode.app/Contents/Developer/Platforms/MacOSX.platform/Developer/SDKs/MacOSX.sdk/usr/include/c++/v1" "new"
	.loc	75 246 10                       ; /Applications/Xcode.app/Contents/Developer/Platforms/MacOSX.platform/Developer/SDKs/MacOSX.sdk/usr/include/c++/v1/new:246:10
	mov	x0, x26
	bl	__Znwm
Ltmp157:
	mov	x25, x0
Ltmp158:
	;DEBUG_VALUE: __allocation <- [DW_OP_LLVM_fragment 64 64] $x26
	;DEBUG_VALUE: __allocation <- [DW_OP_LLVM_fragment 0 64] $x25
	;DEBUG_VALUE: __init:__p <- $x25
	.loc	7 1592 37                       ; /Applications/Xcode.app/Contents/Developer/Platforms/MacOSX.platform/Developer/SDKs/MacOSX.sdk/usr/include/c++/v1/string:1592:37
	orr	x8, x26, #0x8000000000000000
	stp	x23, x8, [sp, #16]
Ltmp159:
	;DEBUG_VALUE: __set_long_pointer:this <- [DW_OP_plus_uconst 8, DW_OP_stack_value] $sp
	;DEBUG_VALUE: __set_long_pointer:__p <- $x25
	.loc	7 1602 35                       ; /Applications/Xcode.app/Contents/Developer/Platforms/MacOSX.platform/Developer/SDKs/MacOSX.sdk/usr/include/c++/v1/string:1602:35
	str	x0, [sp, #8]
Ltmp160:
	;DEBUG_VALUE: __set_long_cap:__s <- undef
	;DEBUG_VALUE: __set_long_cap:this <- [DW_OP_plus_uconst 8, DW_OP_stack_value] $sp
	;DEBUG_VALUE: __set_long_size:__s <- $x23
	;DEBUG_VALUE: __set_long_size:this <- [DW_OP_plus_uconst 8, DW_OP_stack_value] $sp
LBB2_8:
	;DEBUG_VALUE: basic_string:this <- [DW_OP_plus_uconst 8, DW_OP_stack_value] $sp
	;DEBUG_VALUE: basic_string:__n <- $x23
	;DEBUG_VALUE: basic_string:__c <- $w24
	;DEBUG_VALUE: basic_string:this <- [DW_OP_plus_uconst 8, DW_OP_stack_value] $sp
	;DEBUG_VALUE: basic_string:__n <- $x23
	;DEBUG_VALUE: basic_string:__c <- $w24
	;DEBUG_VALUE: __init:this <- [DW_OP_plus_uconst 8, DW_OP_stack_value] $sp
	;DEBUG_VALUE: __init:__n <- $x23
	;DEBUG_VALUE: __init:__c <- $w24
	;DEBUG_VALUE: __pad_and_output<char, std::__1::char_traits<char> >:__ns <- $x23
	;DEBUG_VALUE: __pad_and_output<char, std::__1::char_traits<char> >:__op <- $x21
	;DEBUG_VALUE: __pad_and_output<char, std::__1::char_traits<char> >:__oe <- $x22
	;DEBUG_VALUE: __pad_and_output<char, std::__1::char_traits<char> >:__iob <- $x20
	;DEBUG_VALUE: __pad_and_output<char, std::__1::char_traits<char> >:__fl <- $w24
	;DEBUG_VALUE: __pad_and_output<char, std::__1::char_traits<char> >:__s <- $x19
	;DEBUG_VALUE: __init:__p <- $x25
	;DEBUG_VALUE: assign:__s <- $x25
	;DEBUG_VALUE: assign:__n <- $x23
	;DEBUG_VALUE: assign:__a <- $w24
	;DEBUG_VALUE: fill_n<char *, unsigned long, char>:__first <- $x25
	;DEBUG_VALUE: fill_n<char *, unsigned long, char>:__n <- $x23
	;DEBUG_VALUE: fill_n<char *, unsigned long, char>:__value <- undef
	;DEBUG_VALUE: __fill_n<char *, unsigned long, char>:__first <- $x25
	;DEBUG_VALUE: __fill_n<char *, unsigned long, char>:__n <- $x23
	;DEBUG_VALUE: __fill_n<char *, unsigned long, char>:__value <- undef
	.file	76 "/Applications/Xcode.app/Contents/Developer/Platforms/MacOSX.platform/Developer/SDKs/MacOSX.sdk/usr/include/c++/v1/__algorithm" "fill_n.h"
	.loc	76 30 18                        ; /Applications/Xcode.app/Contents/Developer/Platforms/MacOSX.platform/Developer/SDKs/MacOSX.sdk/usr/include/c++/v1/__algorithm/fill_n.h:30:18
	mov	x0, x25
	mov	x1, x24
	mov	x2, x23
	bl	_memset
Ltmp161:
	;DEBUG_VALUE: assign:__c2 <- undef
	;DEBUG_VALUE: assign:__c1 <- undef
	;DEBUG_VALUE: __fill_n<char *, unsigned long, char>:__n <- [DW_OP_constu 1, DW_OP_minus, DW_OP_stack_value] undef
	;DEBUG_VALUE: __fill_n<char *, unsigned long, char>:__first <- [DW_OP_plus_uconst 1, DW_OP_stack_value] undef
	.loc	4 198 73                        ; /Applications/Xcode.app/Contents/Developer/Platforms/MacOSX.platform/Developer/SDKs/MacOSX.sdk/usr/include/c++/v1/__string/char_traits.h:198:73
	strb	wzr, [x25, x23]
Ltmp162:
	;DEBUG_VALUE: __is_long:this <- [DW_OP_plus_uconst 8, DW_OP_stack_value] $sp
	;DEBUG_VALUE: __get_pointer:this <- [DW_OP_plus_uconst 8, DW_OP_stack_value] $sp
	;DEBUG_VALUE: data:this <- [DW_OP_plus_uconst 8, DW_OP_stack_value] $sp
	.loc	7 1499 33                       ; /Applications/Xcode.app/Contents/Developer/Platforms/MacOSX.platform/Developer/SDKs/MacOSX.sdk/usr/include/c++/v1/string:1499:33
	ldrsb	w8, [sp, #31]
Ltmp163:
	.loc	7 1620 17                       ; /Applications/Xcode.app/Contents/Developer/Platforms/MacOSX.platform/Developer/SDKs/MacOSX.sdk/usr/include/c++/v1/string:1620:17
	ldr	x9, [sp, #8]
	cmp	w8, #0
	add	x8, sp, #8
	csel	x1, x9, x8, lt
Ltmp164:
	;DEBUG_VALUE: sputn:__n <- $x23
	;DEBUG_VALUE: sputn:this <- $x19
	;DEBUG_VALUE: sputn:__s <- $x1
	.loc	20 232 14                       ; /Applications/Xcode.app/Contents/Developer/Platforms/MacOSX.platform/Developer/SDKs/MacOSX.sdk/usr/include/c++/v1/streambuf:232:14
	ldr	x8, [x19]
	ldr	x8, [x8, #96]
Ltmp31:
	mov	x0, x19
	mov	x2, x23
	blr	x8
Ltmp165:
Ltmp32:
; %bb.9:
	;DEBUG_VALUE: __pad_and_output<char, std::__1::char_traits<char> >:__ns <- $x23
	;DEBUG_VALUE: __pad_and_output<char, std::__1::char_traits<char> >:__op <- $x21
	;DEBUG_VALUE: __pad_and_output<char, std::__1::char_traits<char> >:__oe <- $x22
	;DEBUG_VALUE: __pad_and_output<char, std::__1::char_traits<char> >:__iob <- $x20
	;DEBUG_VALUE: __pad_and_output<char, std::__1::char_traits<char> >:__fl <- $w24
	;DEBUG_VALUE: __pad_and_output<char, std::__1::char_traits<char> >:__s <- $x19
	.loc	74 0 0 is_stmt 0                ; /Applications/Xcode.app/Contents/Developer/Platforms/MacOSX.platform/Developer/SDKs/MacOSX.sdk/usr/include/c++/v1/locale:0:0
	mov	x24, x0
Ltmp166:
	cmp	x0, x23
	csel	x19, x19, xzr, eq
Ltmp167:
	;DEBUG_VALUE: __is_long:this <- [DW_OP_plus_uconst 8, DW_OP_stack_value] $sp
	;DEBUG_VALUE: ~basic_string:this <- [DW_OP_plus_uconst 8, DW_OP_stack_value] $sp
	;DEBUG_VALUE: ~basic_string:this <- [DW_OP_plus_uconst 8, DW_OP_stack_value] $sp
	;DEBUG_VALUE: __pad_and_output<char, std::__1::char_traits<char> >:__s <- $x19
	.loc	7 1499 33 is_stmt 1             ; /Applications/Xcode.app/Contents/Developer/Platforms/MacOSX.platform/Developer/SDKs/MacOSX.sdk/usr/include/c++/v1/string:1499:33
	ldrsb	w8, [sp, #31]
Ltmp168:
	.loc	7 2333 9                        ; /Applications/Xcode.app/Contents/Developer/Platforms/MacOSX.platform/Developer/SDKs/MacOSX.sdk/usr/include/c++/v1/string:2333:9
	tbnz	w8, #31, LBB2_11
Ltmp169:
; %bb.10:
	;DEBUG_VALUE: ~basic_string:this <- [DW_OP_plus_uconst 8, DW_OP_stack_value] $sp
	;DEBUG_VALUE: ~basic_string:this <- [DW_OP_plus_uconst 8, DW_OP_stack_value] $sp
	;DEBUG_VALUE: __is_long:this <- [DW_OP_plus_uconst 8, DW_OP_stack_value] $sp
	;DEBUG_VALUE: __pad_and_output<char, std::__1::char_traits<char> >:__ns <- $x23
	;DEBUG_VALUE: __pad_and_output<char, std::__1::char_traits<char> >:__op <- $x21
	;DEBUG_VALUE: __pad_and_output<char, std::__1::char_traits<char> >:__oe <- $x22
	;DEBUG_VALUE: __pad_and_output<char, std::__1::char_traits<char> >:__iob <- $x20
	;DEBUG_VALUE: __pad_and_output<char, std::__1::char_traits<char> >:__s <- $x19
	.loc	7 0 9 is_stmt 0                 ; /Applications/Xcode.app/Contents/Developer/Platforms/MacOSX.platform/Developer/SDKs/MacOSX.sdk/usr/include/c++/v1/string:0:9
	cmp	x24, x23
	b.ne	LBB2_15
	b	LBB2_12
Ltmp170:
LBB2_11:
	;DEBUG_VALUE: ~basic_string:this <- [DW_OP_plus_uconst 8, DW_OP_stack_value] $sp
	;DEBUG_VALUE: ~basic_string:this <- [DW_OP_plus_uconst 8, DW_OP_stack_value] $sp
	;DEBUG_VALUE: __pad_and_output<char, std::__1::char_traits<char> >:__ns <- $x23
	;DEBUG_VALUE: __pad_and_output<char, std::__1::char_traits<char> >:__op <- $x21
	;DEBUG_VALUE: __pad_and_output<char, std::__1::char_traits<char> >:__oe <- $x22
	;DEBUG_VALUE: __pad_and_output<char, std::__1::char_traits<char> >:__iob <- $x20
	;DEBUG_VALUE: __pad_and_output<char, std::__1::char_traits<char> >:__s <- $x19
	;DEBUG_VALUE: __get_long_pointer:this <- [DW_OP_plus_uconst 8, DW_OP_stack_value] $sp
	.loc	7 1605 34 is_stmt 1             ; /Applications/Xcode.app/Contents/Developer/Platforms/MacOSX.platform/Developer/SDKs/MacOSX.sdk/usr/include/c++/v1/string:1605:34
	ldr	x0, [sp, #8]
Ltmp171:
	;DEBUG_VALUE: __do_deallocate_handle_size<>:__size <- [DW_OP_constu 9223372036854775807, DW_OP_and, DW_OP_stack_value] undef
	;DEBUG_VALUE: __libcpp_deallocate:__align <- 1
	;DEBUG_VALUE: __libcpp_deallocate:__size <- [DW_OP_constu 9223372036854775807, DW_OP_and, DW_OP_stack_value] undef
	;DEBUG_VALUE: deallocate:__n <- [DW_OP_constu 9223372036854775807, DW_OP_and, DW_OP_stack_value] undef
	;DEBUG_VALUE: deallocate:this <- [DW_OP_plus_uconst 8, DW_OP_stack_value] $sp
	;DEBUG_VALUE: deallocate:__n <- [DW_OP_constu 9223372036854775807, DW_OP_and, DW_OP_stack_value] undef
	;DEBUG_VALUE: deallocate:__a <- [DW_OP_plus_uconst 8, DW_OP_stack_value] $sp
	;DEBUG_VALUE: __libcpp_operator_delete<void *>:__args <- $x0
	;DEBUG_VALUE: __do_deallocate_handle_size<>:__ptr <- $x0
	;DEBUG_VALUE: __libcpp_deallocate:__ptr <- $x0
	;DEBUG_VALUE: deallocate:__p <- $x0
	;DEBUG_VALUE: deallocate:__p <- $x0
	.loc	75 256 3                        ; /Applications/Xcode.app/Contents/Developer/Platforms/MacOSX.platform/Developer/SDKs/MacOSX.sdk/usr/include/c++/v1/new:256:3
	bl	__ZdlPv
Ltmp172:
	.loc	75 0 3 is_stmt 0                ; /Applications/Xcode.app/Contents/Developer/Platforms/MacOSX.platform/Developer/SDKs/MacOSX.sdk/usr/include/c++/v1/new:0:3
	cmp	x24, x23
	b.ne	LBB2_15
Ltmp173:
LBB2_12:
	;DEBUG_VALUE: __pad_and_output<char, std::__1::char_traits<char> >:__ns <- $x23
	;DEBUG_VALUE: __pad_and_output<char, std::__1::char_traits<char> >:__op <- $x21
	;DEBUG_VALUE: __pad_and_output<char, std::__1::char_traits<char> >:__oe <- $x22
	;DEBUG_VALUE: __pad_and_output<char, std::__1::char_traits<char> >:__iob <- $x20
	;DEBUG_VALUE: __pad_and_output<char, std::__1::char_traits<char> >:__s <- $x19
	;DEBUG_VALUE: __pad_and_output<char, std::__1::char_traits<char> >:__s <- $x19
	.loc	74 1448 17 is_stmt 1            ; /Applications/Xcode.app/Contents/Developer/Platforms/MacOSX.platform/Developer/SDKs/MacOSX.sdk/usr/include/c++/v1/locale:1448:17
	sub	x22, x22, x21
Ltmp174:
	;DEBUG_VALUE: __pad_and_output<char, std::__1::char_traits<char> >:__oe <- [DW_OP_LLVM_entry_value 1] $x3
	;DEBUG_VALUE: __pad_and_output<char, std::__1::char_traits<char> >:__np <- $x22
	.loc	74 1449 9                       ; /Applications/Xcode.app/Contents/Developer/Platforms/MacOSX.platform/Developer/SDKs/MacOSX.sdk/usr/include/c++/v1/locale:1449:9
	cmp	x22, #1
	b.lt	LBB2_14
Ltmp175:
; %bb.13:
	;DEBUG_VALUE: __pad_and_output<char, std::__1::char_traits<char> >:__np <- $x22
	;DEBUG_VALUE: __pad_and_output<char, std::__1::char_traits<char> >:__oe <- [DW_OP_LLVM_entry_value 1] $x3
	;DEBUG_VALUE: __pad_and_output<char, std::__1::char_traits<char> >:__ns <- $x23
	;DEBUG_VALUE: __pad_and_output<char, std::__1::char_traits<char> >:__op <- $x21
	;DEBUG_VALUE: __pad_and_output<char, std::__1::char_traits<char> >:__iob <- $x20
	;DEBUG_VALUE: __pad_and_output<char, std::__1::char_traits<char> >:__s <- $x19
	;DEBUG_VALUE: sputn:this <- $x19
	;DEBUG_VALUE: sputn:__s <- $x21
	;DEBUG_VALUE: sputn:__n <- $x22
	.loc	20 232 14                       ; /Applications/Xcode.app/Contents/Developer/Platforms/MacOSX.platform/Developer/SDKs/MacOSX.sdk/usr/include/c++/v1/streambuf:232:14
	ldr	x8, [x19]
	ldr	x8, [x8, #96]
	mov	x0, x19
	mov	x1, x21
	mov	x2, x22
	blr	x8
Ltmp176:
	.loc	74 1451 13                      ; /Applications/Xcode.app/Contents/Developer/Platforms/MacOSX.platform/Developer/SDKs/MacOSX.sdk/usr/include/c++/v1/locale:1451:13
	cmp	x0, x22
	b.ne	LBB2_15
Ltmp177:
LBB2_14:
	;DEBUG_VALUE: __pad_and_output<char, std::__1::char_traits<char> >:__np <- $x22
	;DEBUG_VALUE: __pad_and_output<char, std::__1::char_traits<char> >:__oe <- [DW_OP_LLVM_entry_value 1] $x3
	;DEBUG_VALUE: __pad_and_output<char, std::__1::char_traits<char> >:__ns <- $x23
	;DEBUG_VALUE: __pad_and_output<char, std::__1::char_traits<char> >:__op <- $x21
	;DEBUG_VALUE: __pad_and_output<char, std::__1::char_traits<char> >:__iob <- $x20
	;DEBUG_VALUE: __pad_and_output<char, std::__1::char_traits<char> >:__s <- $x19
	;DEBUG_VALUE: width:this <- $x20
	;DEBUG_VALUE: width:__wide <- 0
	;DEBUG_VALUE: width:__r <- undef
	.loc	1 540 14                        ; /Applications/Xcode.app/Contents/Developer/Platforms/MacOSX.platform/Developer/SDKs/MacOSX.sdk/usr/include/c++/v1/ios:540:14
	str	xzr, [x20, #24]
	b	LBB2_16
Ltmp178:
LBB2_15:
	;DEBUG_VALUE: __pad_and_output<char, std::__1::char_traits<char> >:__ns <- $x23
	;DEBUG_VALUE: __pad_and_output<char, std::__1::char_traits<char> >:__op <- $x21
	;DEBUG_VALUE: __pad_and_output<char, std::__1::char_traits<char> >:__iob <- $x20
	;DEBUG_VALUE: __pad_and_output<char, std::__1::char_traits<char> >:__s <- $x19
	.loc	1 0 14 is_stmt 0                ; /Applications/Xcode.app/Contents/Developer/Platforms/MacOSX.platform/Developer/SDKs/MacOSX.sdk/usr/include/c++/v1/ios:0:14
	mov	x19, #0
Ltmp179:
LBB2_16:
	.loc	74 1459 1 is_stmt 1             ; /Applications/Xcode.app/Contents/Developer/Platforms/MacOSX.platform/Developer/SDKs/MacOSX.sdk/usr/include/c++/v1/locale:1459:1
	mov	x0, x19
	ldp	x29, x30, [sp, #96]             ; 16-byte Folded Reload
	ldp	x20, x19, [sp, #80]             ; 16-byte Folded Reload
	ldp	x22, x21, [sp, #64]             ; 16-byte Folded Reload
	ldp	x24, x23, [sp, #48]             ; 16-byte Folded Reload
	ldp	x26, x25, [sp, #32]             ; 16-byte Folded Reload
	add	sp, sp, #112
	ret
LBB2_17:
Ltmp180:
	;DEBUG_VALUE: basic_string:this <- [DW_OP_plus_uconst 8, DW_OP_stack_value] $sp
	;DEBUG_VALUE: basic_string:__n <- $x23
	;DEBUG_VALUE: basic_string:__c <- $w24
	;DEBUG_VALUE: basic_string:this <- [DW_OP_plus_uconst 8, DW_OP_stack_value] $sp
	;DEBUG_VALUE: basic_string:__n <- $x23
	;DEBUG_VALUE: basic_string:__c <- $w24
	;DEBUG_VALUE: __init:this <- [DW_OP_plus_uconst 8, DW_OP_stack_value] $sp
	;DEBUG_VALUE: __init:__n <- $x23
	;DEBUG_VALUE: __init:__c <- $w24
	;DEBUG_VALUE: __pad_and_output<char, std::__1::char_traits<char> >:__np <- $x25
	;DEBUG_VALUE: __pad_and_output<char, std::__1::char_traits<char> >:__ns <- $x23
	;DEBUG_VALUE: __pad_and_output<char, std::__1::char_traits<char> >:__op <- $x21
	;DEBUG_VALUE: __pad_and_output<char, std::__1::char_traits<char> >:__oe <- $x22
	;DEBUG_VALUE: __pad_and_output<char, std::__1::char_traits<char> >:__iob <- $x20
	;DEBUG_VALUE: __pad_and_output<char, std::__1::char_traits<char> >:__fl <- $w24
	;DEBUG_VALUE: __pad_and_output<char, std::__1::char_traits<char> >:__s <- $x19
	.loc	7 2107 9                        ; /Applications/Xcode.app/Contents/Developer/Platforms/MacOSX.platform/Developer/SDKs/MacOSX.sdk/usr/include/c++/v1/string:2107:9
	add	x0, sp, #8
	bl	__ZNKSt3__112basic_stringIcNS_11char_traitsIcEENS_9allocatorIcEEE20__throw_length_errorB6v15006Ev
Ltmp181:
LBB2_18:
	;DEBUG_VALUE: __pad_and_output<char, std::__1::char_traits<char> >:__ns <- $x23
	;DEBUG_VALUE: __pad_and_output<char, std::__1::char_traits<char> >:__op <- $x21
	;DEBUG_VALUE: __pad_and_output<char, std::__1::char_traits<char> >:__oe <- $x22
	;DEBUG_VALUE: __pad_and_output<char, std::__1::char_traits<char> >:__iob <- $x20
	;DEBUG_VALUE: __pad_and_output<char, std::__1::char_traits<char> >:__fl <- $w24
	;DEBUG_VALUE: __pad_and_output<char, std::__1::char_traits<char> >:__s <- $x19
Ltmp33:
	.loc	7 0 9 is_stmt 0                 ; /Applications/Xcode.app/Contents/Developer/Platforms/MacOSX.platform/Developer/SDKs/MacOSX.sdk/usr/include/c++/v1/string:0:9
	mov	x19, x0
Ltmp182:
	;DEBUG_VALUE: __pad_and_output<char, std::__1::char_traits<char> >:__s <- [DW_OP_LLVM_entry_value 1] $x0
	;DEBUG_VALUE: __is_long:this <- [DW_OP_plus_uconst 8, DW_OP_stack_value] $sp
	;DEBUG_VALUE: ~basic_string:this <- [DW_OP_plus_uconst 8, DW_OP_stack_value] $sp
	;DEBUG_VALUE: ~basic_string:this <- [DW_OP_plus_uconst 8, DW_OP_stack_value] $sp
	.loc	7 1499 33 is_stmt 1             ; /Applications/Xcode.app/Contents/Developer/Platforms/MacOSX.platform/Developer/SDKs/MacOSX.sdk/usr/include/c++/v1/string:1499:33
	ldrsb	w8, [sp, #31]
Ltmp183:
	.loc	7 2333 9                        ; /Applications/Xcode.app/Contents/Developer/Platforms/MacOSX.platform/Developer/SDKs/MacOSX.sdk/usr/include/c++/v1/string:2333:9
	tbz	w8, #31, LBB2_20
Ltmp184:
; %bb.19:
	;DEBUG_VALUE: ~basic_string:this <- [DW_OP_plus_uconst 8, DW_OP_stack_value] $sp
	;DEBUG_VALUE: ~basic_string:this <- [DW_OP_plus_uconst 8, DW_OP_stack_value] $sp
	;DEBUG_VALUE: __pad_and_output<char, std::__1::char_traits<char> >:__s <- [DW_OP_LLVM_entry_value 1] $x0
	;DEBUG_VALUE: __pad_and_output<char, std::__1::char_traits<char> >:__ns <- $x23
	;DEBUG_VALUE: __pad_and_output<char, std::__1::char_traits<char> >:__op <- $x21
	;DEBUG_VALUE: __pad_and_output<char, std::__1::char_traits<char> >:__oe <- $x22
	;DEBUG_VALUE: __pad_and_output<char, std::__1::char_traits<char> >:__iob <- $x20
	;DEBUG_VALUE: __pad_and_output<char, std::__1::char_traits<char> >:__fl <- $w24
	;DEBUG_VALUE: __get_long_pointer:this <- [DW_OP_plus_uconst 8, DW_OP_stack_value] $sp
	.loc	7 1605 34                       ; /Applications/Xcode.app/Contents/Developer/Platforms/MacOSX.platform/Developer/SDKs/MacOSX.sdk/usr/include/c++/v1/string:1605:34
	ldr	x0, [sp, #8]
Ltmp185:
	;DEBUG_VALUE: __do_deallocate_handle_size<>:__size <- [DW_OP_constu 9223372036854775807, DW_OP_and, DW_OP_stack_value] undef
	;DEBUG_VALUE: __libcpp_deallocate:__align <- 1
	;DEBUG_VALUE: __libcpp_deallocate:__size <- [DW_OP_constu 9223372036854775807, DW_OP_and, DW_OP_stack_value] undef
	;DEBUG_VALUE: deallocate:__n <- [DW_OP_constu 9223372036854775807, DW_OP_and, DW_OP_stack_value] undef
	;DEBUG_VALUE: deallocate:this <- [DW_OP_plus_uconst 8, DW_OP_stack_value] $sp
	;DEBUG_VALUE: deallocate:__n <- [DW_OP_constu 9223372036854775807, DW_OP_and, DW_OP_stack_value] undef
	;DEBUG_VALUE: deallocate:__a <- [DW_OP_plus_uconst 8, DW_OP_stack_value] $sp
	;DEBUG_VALUE: __libcpp_operator_delete<void *>:__args <- $x0
	;DEBUG_VALUE: __do_deallocate_handle_size<>:__ptr <- $x0
	;DEBUG_VALUE: __libcpp_deallocate:__ptr <- $x0
	;DEBUG_VALUE: deallocate:__p <- $x0
	;DEBUG_VALUE: deallocate:__p <- $x0
	.loc	75 256 3                        ; /Applications/Xcode.app/Contents/Developer/Platforms/MacOSX.platform/Developer/SDKs/MacOSX.sdk/usr/include/c++/v1/new:256:3
	bl	__ZdlPv
Ltmp186:
LBB2_20:
	;DEBUG_VALUE: ~basic_string:this <- [DW_OP_plus_uconst 8, DW_OP_stack_value] $sp
	;DEBUG_VALUE: ~basic_string:this <- [DW_OP_plus_uconst 8, DW_OP_stack_value] $sp
	;DEBUG_VALUE: __pad_and_output<char, std::__1::char_traits<char> >:__s <- [DW_OP_LLVM_entry_value 1] $x0
	;DEBUG_VALUE: __pad_and_output<char, std::__1::char_traits<char> >:__ns <- $x23
	;DEBUG_VALUE: __pad_and_output<char, std::__1::char_traits<char> >:__op <- $x21
	;DEBUG_VALUE: __pad_and_output<char, std::__1::char_traits<char> >:__oe <- $x22
	;DEBUG_VALUE: __pad_and_output<char, std::__1::char_traits<char> >:__iob <- $x20
	;DEBUG_VALUE: __pad_and_output<char, std::__1::char_traits<char> >:__fl <- $w24
	.loc	75 0 3 is_stmt 0                ; /Applications/Xcode.app/Contents/Developer/Platforms/MacOSX.platform/Developer/SDKs/MacOSX.sdk/usr/include/c++/v1/new:0:3
	mov	x0, x19
	bl	__Unwind_Resume
Ltmp187:
Lfunc_end2:
	.cfi_endproc
	.file	77 "/Applications/Xcode.app/Contents/Developer/Platforms/MacOSX.platform/Developer/SDKs/MacOSX.sdk/usr/include/c++/v1/__memory" "allocate_at_least.h"
	.section	__TEXT,__gcc_except_tab
	.p2align	2
GCC_except_table2:
Lexception1:
	.byte	255                             ; @LPStart Encoding = omit
	.byte	255                             ; @TType Encoding = omit
	.byte	1                               ; Call site Encoding = uleb128
	.uleb128 Lcst_end1-Lcst_begin1
Lcst_begin1:
	.uleb128 Lfunc_begin2-Lfunc_begin2      ; >> Call Site 1 <<
	.uleb128 Ltmp31-Lfunc_begin2            ;   Call between Lfunc_begin2 and Ltmp31
	.byte	0                               ;     has no landing pad
	.byte	0                               ;   On action: cleanup
	.uleb128 Ltmp31-Lfunc_begin2            ; >> Call Site 2 <<
	.uleb128 Ltmp32-Ltmp31                  ;   Call between Ltmp31 and Ltmp32
	.uleb128 Ltmp33-Lfunc_begin2            ;     jumps to Ltmp33
	.byte	0                               ;   On action: cleanup
	.uleb128 Ltmp32-Lfunc_begin2            ; >> Call Site 3 <<
	.uleb128 Lfunc_end2-Ltmp32              ;   Call between Ltmp32 and Lfunc_end2
	.byte	0                               ;     has no landing pad
	.byte	0                               ;   On action: cleanup
Lcst_end1:
	.p2align	2
                                        ; -- End function
	.section	__TEXT,__text,regular,pure_instructions
	.private_extern	___clang_call_terminate ; -- Begin function __clang_call_terminate
	.globl	___clang_call_terminate
	.weak_def_can_be_hidden	___clang_call_terminate
	.p2align	2
___clang_call_terminate:                ; @__clang_call_terminate
Lfunc_begin3:
	.cfi_startproc
; %bb.0:
	stp	x29, x30, [sp, #-16]!           ; 16-byte Folded Spill
	.cfi_def_cfa_offset 16
	.cfi_offset w30, -8
	.cfi_offset w29, -16
	bl	___cxa_begin_catch
	bl	__ZSt9terminatev
Lfunc_end3:
	.cfi_endproc
                                        ; -- End function
	.private_extern	__ZNKSt3__112basic_stringIcNS_11char_traitsIcEENS_9allocatorIcEEE20__throw_length_errorB6v15006Ev ; -- Begin function _ZNKSt3__112basic_stringIcNS_11char_traitsIcEENS_9allocatorIcEEE20__throw_length_errorB6v15006Ev
	.globl	__ZNKSt3__112basic_stringIcNS_11char_traitsIcEENS_9allocatorIcEEE20__throw_length_errorB6v15006Ev
	.weak_def_can_be_hidden	__ZNKSt3__112basic_stringIcNS_11char_traitsIcEENS_9allocatorIcEEE20__throw_length_errorB6v15006Ev
	.p2align	2
__ZNKSt3__112basic_stringIcNS_11char_traitsIcEENS_9allocatorIcEEE20__throw_length_errorB6v15006Ev: ; @_ZNKSt3__112basic_stringIcNS_11char_traitsIcEENS_9allocatorIcEEE20__throw_length_errorB6v15006Ev
Lfunc_begin4:
	.loc	7 1804 0 is_stmt 1              ; /Applications/Xcode.app/Contents/Developer/Platforms/MacOSX.platform/Developer/SDKs/MacOSX.sdk/usr/include/c++/v1/string:1804:0
	.cfi_startproc
; %bb.0:
	;DEBUG_VALUE: __throw_length_error:this <- $x0
	stp	x29, x30, [sp, #-16]!           ; 16-byte Folded Spill
	.cfi_def_cfa_offset 16
	mov	x29, sp
	.cfi_def_cfa w29, 16
	.cfi_offset w30, -8
	.cfi_offset w29, -16
Ltmp188:
	.loc	7 1805 9 prologue_end           ; /Applications/Xcode.app/Contents/Developer/Platforms/MacOSX.platform/Developer/SDKs/MacOSX.sdk/usr/include/c++/v1/string:1805:9
Lloh26:
	adrp	x0, l_.str.6@PAGE
Ltmp189:
	;DEBUG_VALUE: __throw_length_error:this <- [DW_OP_LLVM_entry_value 1] $x0
Lloh27:
	add	x0, x0, l_.str.6@PAGEOFF
	bl	__ZNSt3__120__throw_length_errorB6v15006EPKc
Ltmp190:
	.loh AdrpAdd	Lloh26, Lloh27
Lfunc_end4:
	.cfi_endproc
                                        ; -- End function
	.private_extern	__ZNSt3__120__throw_length_errorB6v15006EPKc ; -- Begin function _ZNSt3__120__throw_length_errorB6v15006EPKc
	.globl	__ZNSt3__120__throw_length_errorB6v15006EPKc
	.weak_def_can_be_hidden	__ZNSt3__120__throw_length_errorB6v15006EPKc
	.p2align	2
__ZNSt3__120__throw_length_errorB6v15006EPKc: ; @_ZNSt3__120__throw_length_errorB6v15006EPKc
Lfunc_begin5:
	.loc	24 255 0                        ; /Applications/Xcode.app/Contents/Developer/Platforms/MacOSX.platform/Developer/SDKs/MacOSX.sdk/usr/include/c++/v1/stdexcept:255:0
	.cfi_startproc
	.cfi_personality 155, ___gxx_personality_v0
	.cfi_lsda 16, Lexception2
; %bb.0:
	;DEBUG_VALUE: __throw_length_error:__msg <- $x0
	stp	x20, x19, [sp, #-32]!           ; 16-byte Folded Spill
	.cfi_def_cfa_offset 32
	stp	x29, x30, [sp, #16]             ; 16-byte Folded Spill
	add	x29, sp, #16
	.cfi_def_cfa w29, 16
	.cfi_offset w30, -8
	.cfi_offset w29, -16
	.cfi_offset w19, -24
	.cfi_offset w20, -32
	mov	x20, x0
Ltmp191:
	;DEBUG_VALUE: __throw_length_error:__msg <- $x20
	.loc	24 257 5 prologue_end           ; /Applications/Xcode.app/Contents/Developer/Platforms/MacOSX.platform/Developer/SDKs/MacOSX.sdk/usr/include/c++/v1/stdexcept:257:5
	mov	w0, #16
	bl	___cxa_allocate_exception
Ltmp192:
	mov	x19, x0
Ltmp34:
	.loc	24 257 11 is_stmt 0             ; /Applications/Xcode.app/Contents/Developer/Platforms/MacOSX.platform/Developer/SDKs/MacOSX.sdk/usr/include/c++/v1/stdexcept:257:11
	mov	x1, x20
Ltmp193:
	;DEBUG_VALUE: __throw_length_error:__msg <- $x1
	bl	__ZNSt12length_errorC1B6v15006EPKc
Ltmp194:
Ltmp35:
; %bb.1:
	.loc	24 257 5                        ; /Applications/Xcode.app/Contents/Developer/Platforms/MacOSX.platform/Developer/SDKs/MacOSX.sdk/usr/include/c++/v1/stdexcept:257:5
Lloh28:
	adrp	x1, __ZTISt12length_error@GOTPAGE
Lloh29:
	ldr	x1, [x1, __ZTISt12length_error@GOTPAGEOFF]
Lloh30:
	adrp	x2, __ZNSt12length_errorD1Ev@GOTPAGE
Lloh31:
	ldr	x2, [x2, __ZNSt12length_errorD1Ev@GOTPAGEOFF]
	mov	x0, x19
	bl	___cxa_throw
Ltmp195:
LBB5_2:
Ltmp36:
	.loc	24 0 5                          ; /Applications/Xcode.app/Contents/Developer/Platforms/MacOSX.platform/Developer/SDKs/MacOSX.sdk/usr/include/c++/v1/stdexcept:0:5
	mov	x20, x0
	.loc	24 257 5                        ; /Applications/Xcode.app/Contents/Developer/Platforms/MacOSX.platform/Developer/SDKs/MacOSX.sdk/usr/include/c++/v1/stdexcept:257:5
	mov	x0, x19
	bl	___cxa_free_exception
Ltmp196:
	.loc	24 0 5                          ; /Applications/Xcode.app/Contents/Developer/Platforms/MacOSX.platform/Developer/SDKs/MacOSX.sdk/usr/include/c++/v1/stdexcept:0:5
	mov	x0, x20
	bl	__Unwind_Resume
Ltmp197:
	.loh AdrpLdrGot	Lloh30, Lloh31
	.loh AdrpLdrGot	Lloh28, Lloh29
Lfunc_end5:
	.cfi_endproc
	.section	__TEXT,__gcc_except_tab
	.p2align	2
GCC_except_table5:
Lexception2:
	.byte	255                             ; @LPStart Encoding = omit
	.byte	255                             ; @TType Encoding = omit
	.byte	1                               ; Call site Encoding = uleb128
	.uleb128 Lcst_end2-Lcst_begin2
Lcst_begin2:
	.uleb128 Lfunc_begin5-Lfunc_begin5      ; >> Call Site 1 <<
	.uleb128 Ltmp34-Lfunc_begin5            ;   Call between Lfunc_begin5 and Ltmp34
	.byte	0                               ;     has no landing pad
	.byte	0                               ;   On action: cleanup
	.uleb128 Ltmp34-Lfunc_begin5            ; >> Call Site 2 <<
	.uleb128 Ltmp35-Ltmp34                  ;   Call between Ltmp34 and Ltmp35
	.uleb128 Ltmp36-Lfunc_begin5            ;     jumps to Ltmp36
	.byte	0                               ;   On action: cleanup
	.uleb128 Ltmp35-Lfunc_begin5            ; >> Call Site 3 <<
	.uleb128 Lfunc_end5-Ltmp35              ;   Call between Ltmp35 and Lfunc_end5
	.byte	0                               ;     has no landing pad
	.byte	0                               ;   On action: cleanup
Lcst_end2:
	.p2align	2
                                        ; -- End function
	.section	__TEXT,__text,regular,pure_instructions
	.private_extern	__ZNSt12length_errorC1B6v15006EPKc ; -- Begin function _ZNSt12length_errorC1B6v15006EPKc
	.globl	__ZNSt12length_errorC1B6v15006EPKc
	.weak_def_can_be_hidden	__ZNSt12length_errorC1B6v15006EPKc
	.p2align	2
__ZNSt12length_errorC1B6v15006EPKc:     ; @_ZNSt12length_errorC1B6v15006EPKc
Lfunc_begin6:
	.loc	24 154 0 is_stmt 1              ; /Applications/Xcode.app/Contents/Developer/Platforms/MacOSX.platform/Developer/SDKs/MacOSX.sdk/usr/include/c++/v1/stdexcept:154:0
	.cfi_startproc
; %bb.0:
	;DEBUG_VALUE: length_error:this <- $x0
	;DEBUG_VALUE: length_error:__s <- $x1
	;DEBUG_VALUE: length_error:this <- $x0
	;DEBUG_VALUE: length_error:__s <- $x1
	stp	x29, x30, [sp, #-16]!           ; 16-byte Folded Spill
	.cfi_def_cfa_offset 16
	mov	x29, sp
	.cfi_def_cfa w29, 16
	.cfi_offset w30, -8
	.cfi_offset w29, -16
Ltmp198:
	.loc	24 154 74 prologue_end          ; /Applications/Xcode.app/Contents/Developer/Platforms/MacOSX.platform/Developer/SDKs/MacOSX.sdk/usr/include/c++/v1/stdexcept:154:74
	bl	__ZNSt11logic_errorC2EPKc
Ltmp199:
	;DEBUG_VALUE: length_error:__s <- [DW_OP_LLVM_entry_value 1] $x1
	.loc	24 154 91 is_stmt 0             ; /Applications/Xcode.app/Contents/Developer/Platforms/MacOSX.platform/Developer/SDKs/MacOSX.sdk/usr/include/c++/v1/stdexcept:154:91
Lloh32:
	adrp	x8, __ZTVSt12length_error@GOTPAGE
Lloh33:
	ldr	x8, [x8, __ZTVSt12length_error@GOTPAGEOFF]
	add	x8, x8, #16
	str	x8, [x0]
Ltmp200:
	.loc	24 154 92                       ; /Applications/Xcode.app/Contents/Developer/Platforms/MacOSX.platform/Developer/SDKs/MacOSX.sdk/usr/include/c++/v1/stdexcept:154:92
	ldp	x29, x30, [sp], #16             ; 16-byte Folded Reload
	ret
Ltmp201:
	.loh AdrpLdrGot	Lloh32, Lloh33
Lfunc_end6:
	.cfi_endproc
                                        ; -- End function
	.section	__TEXT,__cstring,cstring_literals
l_.str:                                 ; @.str
	.asciz	"Usage: "

l_.str.1:                               ; @.str.1
	.asciz	" <jsonfile>\n"

l_.str.2:                               ; @.str.2
	.asciz	"Done, p = "

l_.str.3:                               ; @.str.3
	.asciz	", out = "

l_.str.4:                               ; @.str.4
	.asciz	", "

l_.str.5:                               ; @.str.5
	.asciz	" GB/s\n"

l_.str.6:                               ; @.str.6
	.asciz	"basic_string"
